 win32ipc

 Timestamp is 5d25976b (Wed Jul 10 15:44:43 2019)

 Preferred load address is 0000000180000000

 Start         Length     Name                   Class
 0001:00000000 0000b090H .text$mn                CODE
 0001:0000b090 00000020H .text$mn$00             CODE
 0001:0000b0b0 00000250H .text$x                 CODE
 0002:00000000 000002a0H .idata$5                DATA
 0002:000002a0 00000010H .00cfg                  DATA
 0002:000002b0 00000008H .CRT$XCA                DATA
 0002:000002b8 00000008H .CRT$XCU                DATA
 0002:000002c0 00000008H .CRT$XCZ                DATA
 0002:000002c8 00000008H .CRT$XIA                DATA
 0002:000002d0 00000018H .CRT$XIC                DATA
 0002:000002e8 00000008H .CRT$XIZ                DATA
 0002:000002f0 00000008H .CRT$XPA                DATA
 0002:000002f8 00000010H .CRT$XPX                DATA
 0002:00000308 00000008H .CRT$XPXA               DATA
 0002:00000310 00000008H .CRT$XPZ                DATA
 0002:00000318 00000008H .CRT$XTA                DATA
 0002:00000320 00000010H .CRT$XTZ                DATA
 0002:00000328 00000000H .gfids$y                DATA
 0002:00000330 000072a0H .rdata                  DATA
 0002:000075d0 00000000H .rdata$r                DATA
 0002:000075d0 00000310H .rdata$zzzdbg           DATA
 0002:000078e0 00000008H .rtc$IAA                DATA
 0002:000078e8 00000008H .rtc$IZZ                DATA
 0002:000078f0 00000008H .rtc$TAA                DATA
 0002:000078f8 00000008H .rtc$TZZ                DATA
 0002:00007900 00000b10H .xdata                  DATA
 0002:00008408 00000000H .xdata$x                DATA
 0002:00008410 00000054H .edata                  DATA
 0002:00008464 00000028H .idata$2                DATA
 0002:0000848c 00000014H .idata$3                DATA
 0002:000084a0 000002a0H .idata$4                DATA
 0002:00008740 000008f0H .idata$6                DATA
 0003:00000000 00000a20H .data                   DATA
 0003:00000a20 00000000H .data$r                 DATA
 0003:00000a20 000011d0H .bss                    DATA
 0004:00000000 00000d44H .pdata                  DATA
 0005:00000000 00000060H .rsrc$01                DATA
 0005:00000060 00000180H .rsrc$02                DATA

  Address         Publics by Value              Rva+Base               Lib:Object

 0000:00000000       __hybrid_code_map          0000000000000000     <absolute>
 0000:00000000       __hybrid_code_map_count    0000000000000000     <absolute>
 0000:00000000       __guard_fids_count         0000000000000000     <absolute>
 0000:00000000       __volatile_metadata        0000000000000000     <absolute>
 0000:00000000       __guard_longjmp_count      0000000000000000     <absolute>
 0000:00000000       __guard_longjmp_table      0000000000000000     <absolute>
 0000:00000000       __guard_iat_count          0000000000000000     <absolute>
 0000:00000000       __guard_iat_table          0000000000000000     <absolute>
 0000:00000000       ___safe_se_handler_count   0000000000000000     <absolute>
 0000:00000000       __enclave_config           0000000000000000     <absolute>
 0000:00000000       ___safe_se_handler_table   0000000000000000     <absolute>
 0000:00000000       __guard_fids_table         0000000000000000     <absolute>
 0000:00000000       __dynamic_value_reloc_table 0000000000000000     <absolute>
 0000:00000000       __hybrid_auxiliary_iat     0000000000000000     <absolute>
 0000:00000100       __guard_flags              0000000000000100     <absolute>
 0000:00000000       __ImageBase                0000000180000000     <linker-defined>
 0001:00000000       ?CreatePipe@@YAXAEBV?$FunctionCallbackInfo@VValue@v8@@@v8@@@Z 0000000180001000 f   module.obj
 0001:00000420       ?Init@@YAXV?$Local@VObject@v8@@@v8@@@Z 0000000180001420 f   module.obj
 0001:000004d0       __security_check_cookie    00000001800014d0 f   LIBCMT:amdsecgs.obj
 0001:00000824       _DllMainCRTStartup         0000000180001824 f   LIBCMT:dll_dllmain.obj
 0001:00000864       __raise_securityfailure    0000000180001864 f   LIBCMT:gs_report.obj
 0001:00000898       __report_gsfailure         0000000180001898 f   LIBCMT:gs_report.obj
 0001:0000096c       __report_rangecheckfailure 000000018000196c f   LIBCMT:gs_report.obj
 0001:00000980       __report_securityfailure   0000000180001980 f   LIBCMT:gs_report.obj
 0001:00000b00       __security_init_cookie     0000000180001b00 f   LIBCMT:gs_support.obj
 0001:00000bac       DllMain                    0000000180001bac f   LIBCMT:dll_dllmain_stub.obj
 0001:00000bac       _get_startup_argv_mode     0000000180001bac f   LIBCMT:argv_mode.obj
 0001:00000bb4       ?__scrt_initialize_type_info@@YAXXZ 0000000180001bb4 f   LIBCMT:tncleanup.obj
 0001:00000bc4       ?__scrt_uninitialize_type_info@@YAXXZ 0000000180001bc4 f   LIBCMT:tncleanup.obj
 0001:00000bd0       __local_stdio_printf_options 0000000180001bd0 f i LIBCMT:default_local_stdio_options.obj
 0001:00000bd8       __local_stdio_scanf_options 0000000180001bd8 f i LIBCMT:default_local_stdio_options.obj
 0001:00000be0       __scrt_initialize_default_local_stdio_options 0000000180001be0 f   LIBCMT:default_local_stdio_options.obj
 0001:00000bfc       __scrt_acquire_startup_lock 0000000180001bfc f   LIBCMT:utility.obj
 0001:00000c38       __scrt_dllmain_after_initialize_c 0000000180001c38 f   LIBCMT:utility.obj
 0001:00000c6c       __scrt_dllmain_before_initialize_c 0000000180001c6c f   LIBCMT:utility.obj
 0001:00000c84       __scrt_dllmain_crt_thread_attach 0000000180001c84 f   LIBCMT:utility.obj
 0001:00000cac       __scrt_dllmain_crt_thread_detach 0000000180001cac f   LIBCMT:utility.obj
 0001:00000cc4       __scrt_dllmain_exception_filter 0000000180001cc4 f   LIBCMT:utility.obj
 0001:00000d24       __scrt_dllmain_uninitialize_c 0000000180001d24 f   LIBCMT:utility.obj
 0001:00000d54       __scrt_dllmain_uninitialize_critical 0000000180001d54 f   LIBCMT:utility.obj
 0001:00000d68       __scrt_initialize_crt      0000000180001d68 f   LIBCMT:utility.obj
 0001:00000db4       __scrt_initialize_onexit_tables 0000000180001db4 f   LIBCMT:utility.obj
 0001:00000e8c       __scrt_is_nonwritable_in_current_image 0000000180001e8c f   LIBCMT:utility.obj
 0001:00000f28       __scrt_release_startup_lock 0000000180001f28 f   LIBCMT:utility.obj
 0001:00000f4c       __scrt_uninitialize_crt    0000000180001f4c f   LIBCMT:utility.obj
 0001:00000f78       __scrt_get_dyn_tls_init_callback 0000000180001f78 f   LIBCMT:dyn_tls_init.obj
 0001:00000f80       __crt_debugger_hook        0000000180001f80 f   LIBCMT:utility_desktop.obj
 0001:00000f88       __scrt_fastfail            0000000180001f88 f   LIBCMT:utility_desktop.obj
 0001:000010d4       _RTC_Initialize            00000001800020d4 f   LIBCMT:initsect.obj
 0001:00001110       _RTC_Terminate             0000000180002110 f   LIBCMT:initsect.obj
 0001:0000114c       _guard_check_icall_nop     000000018000214c f i LIBCMT:guard_support.obj
 0001:00001150       __isa_available_init       0000000180002150 f   LIBCMT:cpu_disp.obj
 0001:0000130c       __scrt_is_ucrt_dll_in_use  000000018000230c f   LIBCMT:ucrt_detection.obj
 0001:00001320       __C_specific_handler       0000000180002320 f   libvcruntime:riscchandler.obj
 0001:0000152c       __std_type_info_destroy_list 000000018000252c f   libvcruntime:std_type_info.obj
 0001:00001558       __vcrt_initialize          0000000180002558 f   libvcruntime:initialization.obj
 0001:0000158c       __vcrt_thread_attach       000000018000258c f   libvcruntime:initialization.obj
 0001:000015a0       __vcrt_thread_detach       00000001800025a0 f   libvcruntime:initialization.obj
 0001:000015b4       __vcrt_uninitialize        00000001800025b4 f   libvcruntime:initialization.obj
 0001:000015d4       __vcrt_uninitialize_critical 00000001800025d4 f   libvcruntime:initialization.obj
 0001:00001600       memset_repmovs             0000000180002600 f   libvcruntime:memset.obj
 0001:00001620       memset                     0000000180002620 f   libvcruntime:memset.obj
 0001:000017c0       _NLG_Notify                00000001800027c0 f   libvcruntime:notify.obj
 0001:000017e0       __NLG_Dispatch2            00000001800027e0 f   libvcruntime:notify.obj
 0001:000017f0       __NLG_Return2              00000001800027f0 f   libvcruntime:notify.obj
 0001:000017f4       __except_validate_context_record 00000001800027f4 f   libvcruntime:jbcxrval.obj
 0001:0000182c       __DestructExceptionObject  000000018000282c f   libvcruntime:ehhelpers.obj
 0001:000018a0       ?_CallMemberFunction0@@YAXQEAX0@Z 00000001800028a0 f i libvcruntime:ehhelpers.obj
 0001:000018a4       __vcrt_freefls             00000001800028a4 f   libvcruntime:per_thread_data.obj
 0001:000018c4       __vcrt_freeptd             00000001800028c4 f   libvcruntime:per_thread_data.obj
 0001:00001914       __vcrt_getptd_noexit       0000000180002914 f   libvcruntime:per_thread_data.obj
 0001:000019e0       __vcrt_initialize_ptd      00000001800029e0 f   libvcruntime:per_thread_data.obj
 0001:00001a34       __vcrt_uninitialize_ptd    0000000180002a34 f   libvcruntime:per_thread_data.obj
 0001:00001a58       __vcrt_initialize_locks    0000000180002a58 f   libvcruntime:locks.obj
 0001:00001aa0       __vcrt_uninitialize_locks  0000000180002aa0 f   libvcruntime:locks.obj
 0001:00001cb0       __vcrt_FlsAlloc            0000000180002cb0 f   libvcruntime:winapi_downlevel.obj
 0001:00001cf8       __vcrt_FlsFree             0000000180002cf8 f   libvcruntime:winapi_downlevel.obj
 0001:00001d40       __vcrt_FlsGetValue         0000000180002d40 f   libvcruntime:winapi_downlevel.obj
 0001:00001d88       __vcrt_FlsSetValue         0000000180002d88 f   libvcruntime:winapi_downlevel.obj
 0001:00001ddc       __vcrt_InitializeCriticalSectionEx 0000000180002ddc f   libvcruntime:winapi_downlevel.obj
 0001:00001e40       __vcrt_initialize_winapi_thunks 0000000180002e40 f   libvcruntime:winapi_downlevel.obj
 0001:00001e70       __vcrt_uninitialize_winapi_thunks 0000000180002e70 f   libvcruntime:winapi_downlevel.obj
 0001:00001eb0       __vcrt_initialize_pure_virtual_call_handler 0000000180002eb0 f   libvcruntime:purevirt_data.obj
 0001:00001ed0       memcpy_repmovs             0000000180002ed0 f   libvcruntime:memcpy.obj
 0001:00001ef0       memcpy                     0000000180002ef0 f   libvcruntime:memcpy.obj
 0001:00001ef0       memmove                    0000000180002ef0 f   libvcruntime:memcpy.obj
 0001:00002340       _CallSettingFrame          0000000180003340 f   libvcruntime:handlers.obj
 0001:00002390       _CallSettingFrameEncoded   0000000180003390 f   libvcruntime:handlers.obj
 0001:000023d8       ??0_LocaleUpdate@@QEAA@QEAU__crt_locale_pointers@@@Z 00000001800033d8 f i libucrt:stricmp.obj
 0001:00002474       _initterm                  0000000180003474 f   libucrt:initterm.obj
 0001:000024d8       _initterm_e                00000001800034d8 f   libucrt:initterm.obj
 0001:00002518       _seh_filter_dll            0000000180003518 f   libucrt:exception_filter.obj
 0001:0000252c       _seh_filter_exe            000000018000352c f   libucrt:exception_filter.obj
 0001:0000291c       __acrt_initialize_thread_local_exit_callback 000000018000391c f   libucrt:exit.obj
 0001:00002924       _cexit                     0000000180003924 f   libucrt:exit.obj
 0001:00002934       _exit                      0000000180003934 f   libucrt:exit.obj
 0001:00002940       _is_c_termination_complete 0000000180003940 f   libucrt:exit.obj
 0001:00002b0c       __acrt_allocate_buffer_for_argv 0000000180003b0c f   libucrt:argv_parsing.obj
 0001:00002b6c       _configure_narrow_argv     0000000180003b6c f   libucrt:argv_parsing.obj
 0001:00002ee4       __dcrt_uninitialize_environments_nolock 0000000180003ee4 f   libucrt:environment_initialization.obj
 0001:00002f1c       _initialize_narrow_environment 0000000180003f1c f   libucrt:environment_initialization.obj
 0001:00003078       _execute_onexit_table      0000000180004078 f   libucrt:onexit.obj
 0001:000030b4       _initialize_onexit_table   00000001800040b4 f   libucrt:onexit.obj
 0001:00003114       __acrt_uninitialize_command_line 0000000180004114 f   libucrt:argv_data.obj
 0001:0000320c       __acrt_initialize          000000018000420c f   libucrt:initialization.obj
 0001:00003220       __acrt_thread_attach       0000000180004220 f   libucrt:initialization.obj
 0001:00003234       __acrt_thread_detach       0000000180004234 f   libucrt:initialization.obj
 0001:00003244       __acrt_uninitialize        0000000180004244 f   libucrt:initialization.obj
 0001:0000327c       __acrt_uninitialize_critical 000000018000427c f   libucrt:initialization.obj
 0001:0000328c       terminate                  000000018000428c f   libucrt:terminate.obj
 0001:000032ac       free                       00000001800042ac f   libucrt:free.obj
 0001:000032c0       strcpy_s                   00000001800042c0 f   libucrt:strcpy_s.obj
 0001:00003330       strncmp                    0000000180004330 f   libucrt:strncmp.obj
 0001:000033b0       abort                      00000001800043b0 f   libucrt:abort.obj
 0001:00003408       calloc                     0000000180004408 f   libucrt:calloc.obj
 0001:00003410       wcsncmp                    0000000180004410 f   libucrt:wcsncmp.obj
 0001:0000343c       __acrt_call_reportfault    000000018000443c f   libucrt:invalid_parameter.obj
 0001:00003598       __acrt_initialize_invalid_parameter_handler 0000000180004598 f   libucrt:invalid_parameter.obj
 0001:000035a0       _invalid_parameter         00000001800045a0 f   libucrt:invalid_parameter.obj
 0001:00003650       _invalid_parameter_noinfo  0000000180004650 f   libucrt:invalid_parameter.obj
 0001:00003670       _invoke_watson             0000000180004670 f   libucrt:invalid_parameter.obj
 0001:000036b8       __acrt_errno_from_os_error 00000001800046b8 f   libucrt:errno.obj
 0001:00003700       __acrt_errno_map_os_error  0000000180004700 f   libucrt:errno.obj
 0001:00003750       __doserrno                 0000000180004750 f   libucrt:errno.obj
 0001:00003770       _errno                     0000000180004770 f   libucrt:errno.obj
 0001:00003b08       __acrt_freeptd             0000000180004b08 f   libucrt:per_thread_data.obj
 0001:00003b4c       __acrt_getptd              0000000180004b4c f   libucrt:per_thread_data.obj
 0001:00003c20       __acrt_getptd_head         0000000180004c20 f   libucrt:per_thread_data.obj
 0001:00003cc8       __acrt_getptd_noexit       0000000180004cc8 f   libucrt:per_thread_data.obj
 0001:00003d94       __acrt_initialize_ptd      0000000180004d94 f   libucrt:per_thread_data.obj
 0001:00003dd0       __acrt_uninitialize_ptd    0000000180004dd0 f   libucrt:per_thread_data.obj
 0001:00003df4       __acrt_update_locale_info  0000000180004df4 f   libucrt:locale_update.obj
 0001:00003e28       __acrt_update_multibyte_info 0000000180004e28 f   libucrt:locale_update.obj
 0001:00003ecc       __acrt_set_locale_changed  0000000180004ecc f   libucrt:wsetlocale.obj
 0001:00003ed8       __acrt_uninitialize_locale 0000000180004ed8 f   libucrt:wsetlocale.obj
 0001:00003f08       __acrt_initialize_locks    0000000180004f08 f   libucrt:locks.obj
 0001:00003f50       __acrt_lock                0000000180004f50 f   libucrt:locks.obj
 0001:00003f6c       __acrt_uninitialize_locks  0000000180004f6c f   libucrt:locks.obj
 0001:00003fa4       __acrt_unlock              0000000180004fa4 f   libucrt:locks.obj
 0001:00003fc0       __acrt_get_process_end_policy 0000000180004fc0 f   libucrt:win_policies.obj
 0001:00003ffc       _calloc_base               0000000180004ffc f   libucrt:calloc_base.obj
 0001:00004074       _free_base                 0000000180005074 f   libucrt:free_base.obj
 0001:000040c8       ??$__acrt_mbs_to_wcs_cp@U__crt_win32_buffer_internal_dynamic_resizing@@@@YAHQEBDAEAV?$__crt_win32_buffer@_WU__crt_win32_buffer_internal_dynamic_resizing@@@@I@Z 00000001800050c8 f i libucrt:argv_wildcards.obj
 0001:00004240       ??$__acrt_wcs_to_mbs_cp@U__crt_win32_buffer_internal_dynamic_resizing@@@@YAHQEB_WAEAV?$__crt_win32_buffer@DU__crt_win32_buffer_internal_dynamic_resizing@@@@I@Z 0000000180005240 f i libucrt:argv_wildcards.obj
 0001:00004a70       __acrt_expand_narrow_argv_wildcards 0000000180005a70 f   libucrt:argv_wildcards.obj
 0001:00004a78       ??$__acrt_wcs_to_mbs_cp@U__crt_win32_buffer_no_resizing@@@@YAHQEB_WAEAV?$__crt_win32_buffer@DU__crt_win32_buffer_no_resizing@@@@I@Z 0000000180005a78 f i libucrt:getmodulefilenamea.obj
 0001:00004b8c       __acrt_GetModuleFileNameA  0000000180005b8c f   libucrt:getmodulefilenamea.obj
 0001:000053d8       __acrt_initialize_multibyte 00000001800063d8 f   libucrt:mbctype.obj
 0001:00005438       __acrt_update_thread_multibyte_data 0000000180006438 f   libucrt:mbctype.obj
 0001:00005454       _setmbcp_nolock            0000000180006454 f   libucrt:mbctype.obj
 0001:00005788       _ismbblead                 0000000180006788 f   libucrt:ismbbyte.obj
 0001:0000579c       __acrt_initialize_command_line 000000018000679c f   libucrt:argv_data.obj
 0001:000057c4       __acrt_MultiByteToWideChar 00000001800067c4 f   libucrt:multibytetowidechar.obj
 0001:00005820       __acrt_WideCharToMultiByte 0000000180006820 f   libucrt:widechartomultibyte.obj
 0001:000058b8       __dcrt_get_narrow_environment_from_os 00000001800068b8 f   libucrt:get_environment_from_os.obj
 0001:000059bc       _recalloc_base             00000001800069bc f   libucrt:recalloc.obj
 0001:00005c2c       __acrt_AppPolicyGetProcessTerminationMethodInternal 0000000180006c2c f   libucrt:winapi_thunks.obj
 0001:00005c7c       __acrt_AreFileApisANSI     0000000180006c7c f   libucrt:winapi_thunks.obj
 0001:00005cb8       __acrt_FlsAlloc            0000000180006cb8 f   libucrt:winapi_thunks.obj
 0001:00005d00       __acrt_FlsFree             0000000180006d00 f   libucrt:winapi_thunks.obj
 0001:00005d48       __acrt_FlsGetValue         0000000180006d48 f   libucrt:winapi_thunks.obj
 0001:00005d90       __acrt_FlsSetValue         0000000180006d90 f   libucrt:winapi_thunks.obj
 0001:00005de4       __acrt_InitializeCriticalSectionEx 0000000180006de4 f   libucrt:winapi_thunks.obj
 0001:00005e48       __acrt_LCMapStringEx       0000000180006e48 f   libucrt:winapi_thunks.obj
 0001:00005f24       __acrt_LocaleNameToLCID    0000000180006f24 f   libucrt:winapi_thunks.obj
 0001:00005f74       __acrt_initialize_winapi_thunks 0000000180006f74 f   libucrt:winapi_thunks.obj
 0001:00005fa8       __acrt_uninitialize_winapi_thunks 0000000180006fa8 f   libucrt:winapi_thunks.obj
 0001:00005fec       __acrt_initialize_heap     0000000180006fec f   libucrt:heap_handle.obj
 0001:00006008       __acrt_uninitialize_heap   0000000180007008 f   libucrt:heap_handle.obj
 0001:00006210       __acrt_initialize_lowio    0000000180007210 f   libucrt:ioinit.obj
 0001:0000624c       __acrt_uninitialize_lowio  000000018000724c f   libucrt:ioinit.obj
 0001:0000628c       __acrt_execute_initializers 000000018000728c f   libucrt:shared_initialization.obj
 0001:0000630c       __acrt_execute_uninitializers 000000018000730c f   libucrt:shared_initialization.obj
 0001:00006348       __acrt_initialize_new_handler 0000000180007348 f   libucrt:new_handler.obj
 0001:00006350       _callnewh                  0000000180007350 f   libucrt:new_handler.obj
 0001:00006380       _query_new_handler         0000000180007380 f   libucrt:new_handler.obj
 0001:000063fc       __acrt_get_sigabrt_handler 00000001800073fc f   libucrt:signal.obj
 0001:0000642c       __acrt_initialize_signal_handlers 000000018000742c f   libucrt:signal.obj
 0001:0000644c       raise                      000000018000744c f   libucrt:signal.obj
 0001:000066b8       __acrt_has_user_matherr    00000001800076b8 f   libucrt:matherr.obj
 0001:000066d8       __acrt_initialize_user_matherr 00000001800076d8 f   libucrt:matherr.obj
 0001:000066e0       __acrt_invoke_user_matherr 00000001800076e0 f   libucrt:matherr.obj
 0001:000068ec       __acrt_stdio_flush_nolock  00000001800078ec f   libucrt:fflush.obj
 0001:00006968       _fflush_nolock             0000000180007968 f   libucrt:fflush.obj
 0001:000069b4       _flushall                  00000001800079b4 f   libucrt:fflush.obj
 0001:000069bc       __acrt_initialize_stdio    00000001800079bc f   libucrt:_file.obj
 0001:00006adc       __acrt_uninitialize_stdio  0000000180007adc f   libucrt:_file.obj
 0001:00006b38       _lock_file                 0000000180007b38 f   libucrt:_file.obj
 0001:00006b44       _unlock_file               0000000180007b44 f   libucrt:_file.obj
 0001:00006b50       _malloc_base               0000000180007b50 f   libucrt:malloc_base.obj
 0001:00006bb0       _mbtowc_l                  0000000180007bb0 f   libucrt:mbtowc.obj
 0001:00006d2c       mbtowc                     0000000180007d2c f   libucrt:mbtowc.obj
 0001:00006d34       _fileno                    0000000180007d34 f   libucrt:fileno.obj
 0001:00006d5c       __pctype_func              0000000180007d5c f   libucrt:ctype.obj
 0001:00006d8c       _isleadbyte_l              0000000180007d8c f i libucrt:_wctype.obj
 0001:000070f0       __acrt_LCMapStringA        00000001800080f0 f   libucrt:lcmapstringa.obj
 0001:00007188       __acrt_add_locale_ref      0000000180008188 f   libucrt:locale_refcounting.obj
 0001:00007214       __acrt_free_locale         0000000180008214 f   libucrt:locale_refcounting.obj
 0001:0000738c       __acrt_locale_add_lc_time_reference 000000018000838c f   libucrt:locale_refcounting.obj
 0001:000073b4       __acrt_locale_free_lc_time_if_unreferenced 00000001800083b4 f   libucrt:locale_refcounting.obj
 0001:000073ec       __acrt_locale_release_lc_time_reference 00000001800083ec f   libucrt:locale_refcounting.obj
 0001:00007414       __acrt_release_locale_ref  0000000180008414 f   libucrt:locale_refcounting.obj
 0001:000074bc       __acrt_update_thread_locale_data 00000001800084bc f   libucrt:locale_refcounting.obj
 0001:0000752c       _updatetlocinfoEx_nolock   000000018000852c f   libucrt:locale_refcounting.obj
 0001:00007594       __acrt_locale_free_monetary 0000000180008594 f   libucrt:initmon.obj
 0001:000076a0       __acrt_locale_free_numeric 00000001800086a0 f   libucrt:initnum.obj
 0001:00007764       __acrt_locale_free_time    0000000180008764 f   libucrt:inittime.obj
 0001:0000786c       __acrt_GetStringTypeA      000000018000886c f   libucrt:getstringtypea.obj
 0001:000079fc       _query_new_mode            00000001800089fc f   libucrt:new_mode.obj
 0001:00007a10       qsort                      0000000180008a10 f   libucrt:qsort.obj
 0001:00007dd0       strncpy_s                  0000000180008dd0 f   libucrt:strncpy_s.obj
 0001:00007f50       strpbrk                    0000000180008f50 f   libucrt:strpbrk.obj
 0001:00008330       _mbsdec                    0000000180009330 f   libucrt:mbsdec.obj
 0001:00008338       _mbsdec_l                  0000000180009338 f   libucrt:mbsdec.obj
 0001:000083e4       _msize_base                00000001800093e4 f   libucrt:msize.obj
 0001:00008420       _realloc_base              0000000180009420 f   libucrt:realloc_base.obj
 0001:00008584       __acrt_DownlevelLocaleNameToLCID 0000000180009584 f   libucrt:lcidtoname_downlevel.obj
 0001:000085b8       __acrt_lowio_create_handle_array 00000001800095b8 f   libucrt:osfinfo.obj
 0001:00008660       __acrt_lowio_destroy_handle_array 0000000180009660 f   libucrt:osfinfo.obj
 0001:000086b0       __acrt_lowio_ensure_fh_exists 00000001800096b0 f   libucrt:osfinfo.obj
 0001:00008758       __acrt_lowio_lock_fh       0000000180009758 f   libucrt:osfinfo.obj
 0001:00008780       __acrt_lowio_unlock_fh     0000000180009780 f   libucrt:osfinfo.obj
 0001:000087a8       _free_osfhnd               00000001800097a8 f   libucrt:osfinfo.obj
 0001:00008864       _get_osfhandle             0000000180009864 f   libucrt:osfinfo.obj
 0001:00008968       _commit                    0000000180009968 f   libucrt:commit.obj
 0001:00009268       _write                     000000018000a268 f   libucrt:write.obj
 0001:00009354       _write_nolock              000000018000a354 f   libucrt:write.obj
 0001:00009630       _fcloseall                 000000018000a630 f   libucrt:closeall.obj
 0001:000096e4       __acrt_stdio_free_buffer_nolock 000000018000a6e4 f   libucrt:_freebuf.obj
 0001:00009724       _isatty                    000000018000a724 f   libucrt:isatty.obj
 0001:00009784       ?__mbrtowc_utf8@__crt_mbstring@@YA_KPEA_WPEBD_KPEAU_Mbstatet@@@Z 000000018000a784 f   libucrt:mbrtowc.obj
 0001:000097c0       ?__mbsrtowcs_utf8@__crt_mbstring@@YA_KPEA_WPEAPEBD_KPEAU_Mbstatet@@@Z 000000018000a7c0 f   libucrt:mbrtowc.obj
 0001:00009938       __strncnt                  000000018000a938 f   libucrt:strncnt.obj
 0001:00009950       _query_app_type            000000018000a950 f   libucrt:report_runtime_error.obj
 0001:000099f4       _lseeki64_nolock           000000018000a9f4 f   libucrt:lseek.obj
 0001:000099fc       _putwch_nolock             000000018000a9fc f   libucrt:putwch.obj
 0001:00009a38       _fclose_nolock             000000018000aa38 f   libucrt:fclose.obj
 0001:00009abc       fclose                     000000018000aabc f   libucrt:fclose.obj
 0001:00009b20       ?__mbrtoc32_utf8@__crt_mbstring@@YA_KPEA_UPEBD_KPEAU_Mbstatet@@@Z 000000018000ab20 f   libucrt:mbrtoc32.obj
 0001:00009d00       log10                      000000018000ad00 f   libucrt:log10.obj
 0001:0000a2ac       __dcrt_lowio_ensure_console_output_initialized 000000018000b2ac f   libucrt:initcon.obj
 0001:0000a300       __dcrt_terminate_console_output 000000018000b300 f   libucrt:initcon.obj
 0001:0000a31c       __dcrt_write_console       000000018000b31c f   libucrt:initcon.obj
 0001:0000a450       _close                     000000018000b450 f   libucrt:close.obj
 0001:0000a4f4       _close_nolock              000000018000b4f4 f   libucrt:close.obj
 0001:0000a5b4       ?__acrt_stdio_free_stream@@YAXV__crt_stdio_stream@@@Z 000000018000b5b4 f   libucrt:stream.obj
 0001:0000a6f4       _handle_error              000000018000b6f4 f   libucrt:libm_error.obj
 0001:0000a820       __acrt_initialize_fma3     000000018000b820 f   libucrt:fma3_available.obj
 0001:0000a890       _log10_special             000000018000b890 f   libucrt:log_special.obj
 0001:0000a960       _get_fpsr                  000000018000b960 f   libucrt:fpsr.obj
 0001:0000a970       _set_fpsr                  000000018000b970 f   libucrt:fpsr.obj
 0001:0000a97a       _fclrf                     000000018000b97a f   libucrt:fpsr.obj
 0001:0000a98e       _frnd                      000000018000b98e f   libucrt:fpsr.obj
 0001:0000a9b0       _raise_exc                 000000018000b9b0 f   libucrt:fpexcept.obj
 0001:0000a9d8       _raise_exc_ex              000000018000b9d8 f   libucrt:fpexcept.obj
 0001:0000ace8       _set_errno_from_matherr    000000018000bce8 f   libucrt:fpexcept.obj
 0001:0000ad18       _clrfp                     000000018000bd18 f   libucrt:fpctrl.obj
 0001:0000ad38       _ctrlfp                    000000018000bd38 f   libucrt:fpctrl.obj
 0001:0000adb4       _set_statfp                000000018000bdb4 f   libucrt:fpctrl.obj
 0001:0000add4       _statfp                    000000018000bdd4 f   libucrt:fpctrl.obj
 0001:0000ade5       IsProcessorFeaturePresent  000000018000bde5 f   kernel32:KERNEL32.dll
 0001:0000adf0       _FindPESection             000000018000bdf0 f   LIBCMT:pesect.obj
 0001:0000ae40       _IsNonwritableInCurrentImage 000000018000be40 f   LIBCMT:pesect.obj
 0001:0000ae90       _ValidateImageBase         000000018000be90 f   LIBCMT:pesect.obj
 0001:0000aec0       __GSHandlerCheck           000000018000bec0 f   LIBCMT:gshandler.obj
 0001:0000aee0       __GSHandlerCheckCommon     000000018000bee0 f   LIBCMT:gshandler.obj
 0001:0000af50       _alloca_probe              000000018000bf50 f   LIBCMT:chkstk.obj
 0001:0000af50       __chkstk                   000000018000bf50 f   LIBCMT:chkstk.obj
 0001:0000afc0       memcmp                     000000018000bfc0 f   libvcruntime:memcmp.obj
 0001:0000b0a0       _guard_dispatch_icall_nop  000000018000c0a0 f   LIBCMT:guard_dispatch.obj
 0002:00000000       __imp_SetHandleInformation 000000018000d000     kernel32:KERNEL32.dll
 0002:00000008       __imp_CreatePipe           000000018000d008     kernel32:KERNEL32.dll
 0002:00000010       __imp_CloseHandle          000000018000d010     kernel32:KERNEL32.dll
 0002:00000018       __imp_WriteConsoleW        000000018000d018     kernel32:KERNEL32.dll
 0002:00000020       __imp_CreateFileW          000000018000d020     kernel32:KERNEL32.dll
 0002:00000028       __imp_SetFilePointerEx     000000018000d028     kernel32:KERNEL32.dll
 0002:00000030       __imp_GetConsoleMode       000000018000d030     kernel32:KERNEL32.dll
 0002:00000038       __imp_GetConsoleCP         000000018000d038     kernel32:KERNEL32.dll
 0002:00000040       __imp_WriteFile            000000018000d040     kernel32:KERNEL32.dll
 0002:00000048       __imp_FlushFileBuffers     000000018000d048     kernel32:KERNEL32.dll
 0002:00000050       __imp_SetStdHandle         000000018000d050     kernel32:KERNEL32.dll
 0002:00000058       __imp_HeapReAlloc          000000018000d058     kernel32:KERNEL32.dll
 0002:00000060       __imp_HeapSize             000000018000d060     kernel32:KERNEL32.dll
 0002:00000068       __imp_GetStringTypeW       000000018000d068     kernel32:KERNEL32.dll
 0002:00000070       __imp_GetFileType          000000018000d070     kernel32:KERNEL32.dll
 0002:00000078       __imp_GetStdHandle         000000018000d078     kernel32:KERNEL32.dll
 0002:00000080       __imp_GetProcessHeap       000000018000d080     kernel32:KERNEL32.dll
 0002:00000088       __imp_RtlCaptureContext    000000018000d088     kernel32:KERNEL32.dll
 0002:00000090       __imp_RtlLookupFunctionEntry 000000018000d090     kernel32:KERNEL32.dll
 0002:00000098       __imp_RtlVirtualUnwind     000000018000d098     kernel32:KERNEL32.dll
 0002:000000a0       __imp_UnhandledExceptionFilter 000000018000d0a0     kernel32:KERNEL32.dll
 0002:000000a8       __imp_SetUnhandledExceptionFilter 000000018000d0a8     kernel32:KERNEL32.dll
 0002:000000b0       __imp_GetCurrentProcess    000000018000d0b0     kernel32:KERNEL32.dll
 0002:000000b8       __imp_TerminateProcess     000000018000d0b8     kernel32:KERNEL32.dll
 0002:000000c0       __imp_IsProcessorFeaturePresent 000000018000d0c0     kernel32:KERNEL32.dll
 0002:000000c8       __imp_QueryPerformanceCounter 000000018000d0c8     kernel32:KERNEL32.dll
 0002:000000d0       __imp_GetCurrentProcessId  000000018000d0d0     kernel32:KERNEL32.dll
 0002:000000d8       __imp_GetCurrentThreadId   000000018000d0d8     kernel32:KERNEL32.dll
 0002:000000e0       __imp_GetSystemTimeAsFileTime 000000018000d0e0     kernel32:KERNEL32.dll
 0002:000000e8       __imp_InitializeSListHead  000000018000d0e8     kernel32:KERNEL32.dll
 0002:000000f0       __imp_IsDebuggerPresent    000000018000d0f0     kernel32:KERNEL32.dll
 0002:000000f8       __imp_GetStartupInfoW      000000018000d0f8     kernel32:KERNEL32.dll
 0002:00000100       __imp_GetModuleHandleW     000000018000d100     kernel32:KERNEL32.dll
 0002:00000108       __imp_RtlUnwindEx          000000018000d108     kernel32:KERNEL32.dll
 0002:00000110       __imp_InterlockedFlushSList 000000018000d110     kernel32:KERNEL32.dll
 0002:00000118       __imp_GetLastError         000000018000d118     kernel32:KERNEL32.dll
 0002:00000120       __imp_SetLastError         000000018000d120     kernel32:KERNEL32.dll
 0002:00000128       __imp_EnterCriticalSection 000000018000d128     kernel32:KERNEL32.dll
 0002:00000130       __imp_LeaveCriticalSection 000000018000d130     kernel32:KERNEL32.dll
 0002:00000138       __imp_DeleteCriticalSection 000000018000d138     kernel32:KERNEL32.dll
 0002:00000140       __imp_InitializeCriticalSectionAndSpinCount 000000018000d140     kernel32:KERNEL32.dll
 0002:00000148       __imp_TlsAlloc             000000018000d148     kernel32:KERNEL32.dll
 0002:00000150       __imp_TlsGetValue          000000018000d150     kernel32:KERNEL32.dll
 0002:00000158       __imp_TlsSetValue          000000018000d158     kernel32:KERNEL32.dll
 0002:00000160       __imp_TlsFree              000000018000d160     kernel32:KERNEL32.dll
 0002:00000168       __imp_FreeLibrary          000000018000d168     kernel32:KERNEL32.dll
 0002:00000170       __imp_GetProcAddress       000000018000d170     kernel32:KERNEL32.dll
 0002:00000178       __imp_LoadLibraryExW       000000018000d178     kernel32:KERNEL32.dll
 0002:00000180       __imp_RaiseException       000000018000d180     kernel32:KERNEL32.dll
 0002:00000188       __imp_ExitProcess          000000018000d188     kernel32:KERNEL32.dll
 0002:00000190       __imp_GetModuleHandleExW   000000018000d190     kernel32:KERNEL32.dll
 0002:00000198       __imp_GetModuleFileNameW   000000018000d198     kernel32:KERNEL32.dll
 0002:000001a0       __imp_HeapAlloc            000000018000d1a0     kernel32:KERNEL32.dll
 0002:000001a8       __imp_HeapFree             000000018000d1a8     kernel32:KERNEL32.dll
 0002:000001b0       __imp_FindClose            000000018000d1b0     kernel32:KERNEL32.dll
 0002:000001b8       __imp_FindFirstFileExW     000000018000d1b8     kernel32:KERNEL32.dll
 0002:000001c0       __imp_FindNextFileW        000000018000d1c0     kernel32:KERNEL32.dll
 0002:000001c8       __imp_IsValidCodePage      000000018000d1c8     kernel32:KERNEL32.dll
 0002:000001d0       __imp_GetACP               000000018000d1d0     kernel32:KERNEL32.dll
 0002:000001d8       __imp_GetOEMCP             000000018000d1d8     kernel32:KERNEL32.dll
 0002:000001e0       __imp_GetCPInfo            000000018000d1e0     kernel32:KERNEL32.dll
 0002:000001e8       __imp_GetCommandLineA      000000018000d1e8     kernel32:KERNEL32.dll
 0002:000001f0       __imp_GetCommandLineW      000000018000d1f0     kernel32:KERNEL32.dll
 0002:000001f8       __imp_MultiByteToWideChar  000000018000d1f8     kernel32:KERNEL32.dll
 0002:00000200       __imp_WideCharToMultiByte  000000018000d200     kernel32:KERNEL32.dll
 0002:00000208       __imp_GetEnvironmentStringsW 000000018000d208     kernel32:KERNEL32.dll
 0002:00000210       __imp_FreeEnvironmentStringsW 000000018000d210     kernel32:KERNEL32.dll
 0002:00000218       __imp_LCMapStringW         000000018000d218     kernel32:KERNEL32.dll
 0002:00000220       \177KERNEL32_NULL_THUNK_DATA 000000018000d220     kernel32:KERNEL32.dll
 0002:00000228       __imp_?ToString@Value@v8@@QEBA?AV?$Local@VString@v8@@@2@XZ 000000018000d228     iojs:node.dll
 0002:00000230       __imp_node_module_register 000000018000d230     iojs:node.dll
 0002:00000238       __imp_?Set@Object@v8@@QEAA_NV?$Local@VValue@v8@@@2@0@Z 000000018000d238     iojs:node.dll
 0002:00000240       __imp_?New@Object@v8@@SA?AV?$Local@VObject@v8@@@2@PEAVIsolate@2@@Z 000000018000d240     iojs:node.dll
 0002:00000248       __imp_?New@Number@v8@@SA?AV?$Local@VNumber@v8@@@2@PEAVIsolate@2@N@Z 000000018000d248     iojs:node.dll
 0002:00000250       __imp_??0Utf8Value@String@v8@@QEAA@V?$Local@VValue@v8@@@2@@Z 000000018000d250     iojs:node.dll
 0002:00000258       __imp_??1Utf8Value@String@v8@@QEAA@XZ 000000018000d258     iojs:node.dll
 0002:00000260       __imp_?New@FunctionTemplate@v8@@SA?AV?$Local@VFunctionTemplate@v8@@@2@PEAVIsolate@2@P6AXAEBV?$FunctionCallbackInfo@VValue@v8@@@2@@ZV?$Local@VValue@v8@@@2@V?$Local@VSignature@v8@@@2@HW4ConstructorBehavior@2@@Z 000000018000d260     iojs:node.dll
 0002:00000268       __imp_?GetFunction@FunctionTemplate@v8@@QEAA?AV?$Local@VFunction@v8@@@2@XZ 000000018000d268     iojs:node.dll
 0002:00000270       __imp_?TypeError@Exception@v8@@SA?AV?$Local@VValue@v8@@@2@V?$Local@VString@v8@@@2@@Z 000000018000d270     iojs:node.dll
 0002:00000278       __imp_?Error@Exception@v8@@SA?AV?$Local@VValue@v8@@@2@V?$Local@VString@v8@@@2@@Z 000000018000d278     iojs:node.dll
 0002:00000280       __imp_?GetCurrent@Isolate@v8@@SAPEAV12@XZ 000000018000d280     iojs:node.dll
 0002:00000288       __imp_?ThrowException@Isolate@v8@@QEAA?AV?$Local@VValue@v8@@@2@V32@@Z 000000018000d288     iojs:node.dll
 0002:00000290       __imp_?NewFromUtf8@String@v8@@SA?AV?$Local@VString@v8@@@2@PEAVIsolate@2@PEBDW4NewStringType@12@H@Z 000000018000d290     iojs:node.dll
 0002:00000298       \177node_NULL_THUNK_DATA   000000018000d298     iojs:node.dll
 0002:000002a0       __guard_check_icall_fptr   000000018000d2a0     LIBCMT:guard_support.obj
 0002:000002a8       __guard_dispatch_icall_fptr 000000018000d2a8     LIBCMT:guard_support.obj
 0002:000002b0       __xc_a                     000000018000d2b0     LIBCMT:initializers.obj
 0002:000002b8       _register_win32ipc_        000000018000d2b8     module.obj
 0002:000002c0       __xc_z                     000000018000d2c0     LIBCMT:initializers.obj
 0002:000002c8       __xi_a                     000000018000d2c8     LIBCMT:initializers.obj
 0002:000002d0       __acrt_multibyte_initializer 000000018000d2d0     libucrt:multibyte_initializer.obj
 0002:000002d8       __acrt_stdio_initializer   000000018000d2d8     libucrt:stdio_initializer.obj
 0002:000002e0       __acrt_tran_fma3_initializer 000000018000d2e0     libucrt:fma3_initializer.obj
 0002:000002e8       __xi_z                     000000018000d2e8     LIBCMT:initializers.obj
 0002:000002f0       __xp_a                     000000018000d2f0     LIBCMT:initializers.obj
 0002:000002f8       __acrt_locale_terminator   000000018000d2f8     libucrt:locale_initializer.obj
 0002:00000300       __dcrt_console_output_terminator 000000018000d300     libucrt:console_output_initializer.obj
 0002:00000308       __acrt_stdio_terminator    000000018000d308     libucrt:stdio_initializer.obj
 0002:00000310       __xp_z                     000000018000d310     LIBCMT:initializers.obj
 0002:00000318       __xt_a                     000000018000d318     LIBCMT:initializers.obj
 0002:00000320       __xt_z                     000000018000d320     LIBCMT:initializers.obj
 0002:00000330       _pDefaultRawDllMain        000000018000d330     LIBCMT:dll_dllmain.obj
 0002:00000330       _pRawDllMain               000000018000d330     LIBCMT:dll_dllmain.obj
 0002:00000348       _pDestructExceptionObject  000000018000d348     libvcruntime:ehhelpers.obj
 0002:00000688       ??_C@_08EHJDFFNH@__based?$CI@ 000000018000d688     libvcruntime:undname.obj
 0002:00000698       ??_C@_07KOLFKCDI@__cdecl@  000000018000d698     libvcruntime:undname.obj
 0002:000006a0       ??_C@_08GHMPAG@__pascal@   000000018000d6a0     libvcruntime:undname.obj
 0002:000006b0       ??_C@_09IFJBGAPI@__stdcall@ 000000018000d6b0     libvcruntime:undname.obj
 0002:000006c0       ??_C@_0L@NPHFGOKO@__thiscall@ 000000018000d6c0     libvcruntime:undname.obj
 0002:000006d0       ??_C@_0L@JMKHOMEK@__fastcall@ 000000018000d6d0     libvcruntime:undname.obj
 0002:000006e0       ??_C@_0N@BCKKPABJ@__vectorcall@ 000000018000d6e0     libvcruntime:undname.obj
 0002:000006f0       ??_C@_09HIJEGCPM@__clrcall@ 000000018000d6f0     libvcruntime:undname.obj
 0002:000006fc       ??_C@_06GHPCKEAG@__eabi@   000000018000d6fc     libvcruntime:undname.obj
 0002:00000708       ??_C@_09IOPIDJLG@__swift_1@ 000000018000d708     libvcruntime:undname.obj
 0002:00000718       ??_C@_09KFNFGKHF@__swift_2@ 000000018000d718     libvcruntime:undname.obj
 0002:00000728       ??_C@_07JOMMBBKO@__ptr64@  000000018000d728     libvcruntime:undname.obj
 0002:00000730       ??_C@_0L@PILCLIHE@__restrict@ 000000018000d730     libvcruntime:undname.obj
 0002:00000740       ??_C@_0M@GFIIJFMG@__unaligned@ 000000018000d740     libvcruntime:undname.obj
 0002:00000750       ??_C@_09DHDLOLLB@restrict?$CI@ 000000018000d750     libvcruntime:undname.obj
 0002:0000075a       ??_C@_00CNPNBAHC@@         000000018000d75a     libvcruntime:undname.obj
 0002:0000075c       ??_C@_04NIHEBCM@?5new@     000000018000d75c     libvcruntime:undname.obj
 0002:00000768       ??_C@_07FPCDHGMM@?5delete@ 000000018000d768     libvcruntime:undname.obj
 0002:00000770       ??_C@_01NEMOKFLO@?$DN@     000000018000d770     libvcruntime:undname.obj
 0002:00000774       ??_C@_02GPIOPFAK@?$DO?$DO@ 000000018000d774     libvcruntime:undname.obj
 0002:00000778       ??_C@_02FODMEDOG@?$DM?$DM@ 000000018000d778     libvcruntime:undname.obj
 0002:0000077c       ??_C@_01DCLJPIOD@?$CB@     000000018000d77c     libvcruntime:undname.obj
 0002:00000780       ??_C@_02EGOFBIJA@?$DN?$DN@ 000000018000d780     libvcruntime:undname.obj
 0002:00000784       ??_C@_02FDNJECIE@?$CB?$DN@ 000000018000d784     libvcruntime:undname.obj
 0002:00000788       ??_C@_02GPECMEKF@?$FL?$FN@ 000000018000d788     libvcruntime:undname.obj
 0002:00000790       ??_C@_08LHJFAFGD@operator@ 000000018000d790     libvcruntime:undname.obj
 0002:0000079c       ??_C@_02HBOOOICD@?9?$DO@   000000018000d79c     libvcruntime:undname.obj
 0002:000007a0       ??_C@_01NBENCBCI@?$CK@     000000018000d7a0     libvcruntime:undname.obj
 0002:000007a4       ??_C@_02ECNGHCIF@?$CL?$CL@ 000000018000d7a4     libvcruntime:undname.obj
 0002:000007a8       ??_C@_02BAABKJLB@?9?9@     000000018000d7a8     libvcruntime:undname.obj
 0002:000007ac       ??_C@_01JOAMLHOP@?9@       000000018000d7ac     libvcruntime:undname.obj
 0002:000007b0       ??_C@_01MIFGBAGJ@?$CL@     000000018000d7b0     libvcruntime:undname.obj
 0002:000007b4       ??_C@_01HNPIGOCE@?$CG@     000000018000d7b4     libvcruntime:undname.obj
 0002:000007b8       ??_C@_03MNHNFDLC@?9?$DO?$CK@ 000000018000d7b8     libvcruntime:undname.obj
 0002:000007bc       ??_C@_01KMDKNFGN@?1@       000000018000d7bc     libvcruntime:undname.obj
 0002:000007c0       ??_C@_01FGNFDNOH@?$CF@     000000018000d7c0     libvcruntime:undname.obj
 0002:000007c4       ??_C@_01MNNFJEPP@?$DM@     000000018000d7c4     libvcruntime:undname.obj
 0002:000007c8       ??_C@_02EHCHHCKH@?$DM?$DN@ 000000018000d7c8     libvcruntime:undname.obj
 0002:000007cc       ??_C@_01PPODPGHN@?$DO@     000000018000d7cc     libvcruntime:undname.obj
 0002:000007d0       ??_C@_02EEKDKGMJ@?$DO?$DN@ 000000018000d7d0     libvcruntime:undname.obj
 0002:000007d4       ??_C@_01IHBHIGKO@?0@       000000018000d7d4     libvcruntime:undname.obj
 0002:000007d8       ??_C@_02HCKGKOFO@?$CI?$CJ@ 000000018000d7d8     libvcruntime:undname.obj
 0002:000007dc       ??_C@_01PJKLJHI@?$HO@      000000018000d7dc     libvcruntime:undname.obj
 0002:000007e0       ??_C@_01JKBOJNNK@?$FO@     000000018000d7e0     libvcruntime:undname.obj
 0002:000007e4       ??_C@_01DNKMNLPK@?$HM@     000000018000d7e4     libvcruntime:undname.obj
 0002:000007e8       ??_C@_02PPKAJPJL@?$CG?$CG@ 000000018000d7e8     libvcruntime:undname.obj
 0002:000007ec       ??_C@_02NONPIBCD@?$HM?$HM@ 000000018000d7ec     libvcruntime:undname.obj
 0002:000007f0       ??_C@_02FPIMKNGF@?$CK?$DN@ 000000018000d7f0     libvcruntime:undname.obj
 0002:000007f4       ??_C@_02FOEOMHFC@?$CL?$DN@ 000000018000d7f4     libvcruntime:undname.obj
 0002:000007f8       ??_C@_02FKMDLLOA@?9?$DN@   000000018000d7f8     libvcruntime:undname.obj
 0002:000007fc       ??_C@_02FJEHGPIO@?1?$DN@   000000018000d7fc     libvcruntime:undname.obj
 0002:00000800       ??_C@_02FENAOKFI@?$CF?$DN@ 000000018000d800     libvcruntime:undname.obj
 0002:00000804       ??_C@_03IKFCCPFF@?$DO?$DO?$DN@ 000000018000d804     libvcruntime:undname.obj
 0002:00000808       ??_C@_03CDNPDDLA@?$DM?$DM?$DN@ 000000018000d808     libvcruntime:undname.obj
 0002:0000080c       ??_C@_02FGJGFEAB@?$CG?$DN@ 000000018000d80c     libvcruntime:undname.obj
 0002:00000810       ??_C@_02DHLNPPGH@?$HM?$DN@ 000000018000d810     libvcruntime:undname.obj
 0002:00000814       ??_C@_02MHEGNOJ@?$FO?$DN@  000000018000d814     libvcruntime:undname.obj
 0002:00000818       ??_C@_09IFPLHPGF@?$GAvftable?8@ 000000018000d818     libvcruntime:undname.obj
 0002:00000828       ??_C@_09BLBHBJP@?$GAvbtable?8@ 000000018000d828     libvcruntime:undname.obj
 0002:00000838       ??_C@_07FEEIOKP@?$GAvcall?8@ 000000018000d838     libvcruntime:undname.obj
 0002:00000840       ??_C@_08LLFFHHDJ@?$GAtypeof?8@ 000000018000d840     libvcruntime:undname.obj
 0002:00000850       ??_C@_0BF@KDPPACIK@?$GAlocal?5static?5guard?8@ 000000018000d850     libvcruntime:undname.obj
 0002:00000868       ??_C@_08OBABFOLI@?$GAstring?8@ 000000018000d868     libvcruntime:undname.obj
 0002:00000878       ??_C@_0BD@JDLKDPAB@?$GAvbase?5destructor?8@ 000000018000d878     libvcruntime:undname.obj
 0002:00000890       ??_C@_0BN@DEGPLNFK@?$GAvector?5deleting?5destructor?8@ 000000018000d890     libvcruntime:undname.obj
 0002:000008b0       ??_C@_0BO@OBMKPJIG@?$GAdefault?5constructor?5closure?8@ 000000018000d8b0     libvcruntime:undname.obj
 0002:000008d0       ??_C@_0BN@IMDCHIKM@?$GAscalar?5deleting?5destructor?8@ 000000018000d8d0     libvcruntime:undname.obj
 0002:000008f0       ??_C@_0BO@PFGOCPJJ@?$GAvector?5constructor?5iterator?8@ 000000018000d8f0     libvcruntime:undname.obj
 0002:00000910       ??_C@_0BN@LFPFMEDL@?$GAvector?5destructor?5iterator?8@ 000000018000d910     libvcruntime:undname.obj
 0002:00000930       ??_C@_0CE@IKBNEHA@?$GAvector?5vbase?5constructor?5itera@ 000000018000d930     libvcruntime:undname.obj
 0002:00000958       ??_C@_0BL@NILFHHPC@?$GAvirtual?5displacement?5map?8@ 000000018000d958     libvcruntime:undname.obj
 0002:00000978       ??_C@_0CB@JONCMFFK@?$GAeh?5vector?5constructor?5iterator@ 000000018000d978     libvcruntime:undname.obj
 0002:000009a0       ??_C@_0CA@GCEOPDGL@?$GAeh?5vector?5destructor?5iterator?8@ 000000018000d9a0     libvcruntime:undname.obj
 0002:000009c0       ??_C@_0CH@OOJPLCPH@?$GAeh?5vector?5vbase?5constructor?5it@ 000000018000d9c0     libvcruntime:undname.obj
 0002:000009e8       ??_C@_0BL@LLKPOHJI@?$GAcopy?5constructor?5closure?8@ 000000018000d9e8     libvcruntime:undname.obj
 0002:00000a08       ??_C@_0BA@KBCDOMBN@?$GAudt?5returning?8@ 000000018000da08     libvcruntime:undname.obj
 0002:00000a18       ??_C@_03KLGMFNMG@?$GAEH@   000000018000da18     libvcruntime:undname.obj
 0002:00000a1c       ??_C@_05KHLCHHI@?$GARTTI@  000000018000da1c     libvcruntime:undname.obj
 0002:00000a28       ??_C@_0BA@KKLDJDLB@?$GAlocal?5vftable?8@ 000000018000da28     libvcruntime:undname.obj
 0002:00000a38       ??_C@_0CE@IIHCMGGL@?$GAlocal?5vftable?5constructor?5clos@ 000000018000da38     libvcruntime:undname.obj
 0002:00000a5c       ??_C@_06FHBGPFGH@?5new?$FL?$FN@ 000000018000da5c     libvcruntime:undname.obj
 0002:00000a68       ??_C@_09LBNFPBCA@?5delete?$FL?$FN@ 000000018000da68     libvcruntime:undname.obj
 0002:00000a78       ??_C@_0P@HJKNJFNN@?$GAomni?5callsig?8@ 000000018000da78     libvcruntime:undname.obj
 0002:00000a88       ??_C@_0BL@CNOONJFP@?$GAplacement?5delete?5closure?8@ 000000018000da88     libvcruntime:undname.obj
 0002:00000aa8       ??_C@_0BN@CKNJLHMB@?$GAplacement?5delete?$FL?$FN?5closure?8@ 000000018000daa8     libvcruntime:undname.obj
 0002:00000ac8       ??_C@_0CG@CFDHKGGD@?$GAmanaged?5vector?5constructor?5ite@ 000000018000dac8     libvcruntime:undname.obj
 0002:00000af0       ??_C@_0CF@IMGKMJNO@?$GAmanaged?5vector?5destructor?5iter@ 000000018000daf0     libvcruntime:undname.obj
 0002:00000b18       ??_C@_0CG@HLDDJMAG@?$GAeh?5vector?5copy?5constructor?5ite@ 000000018000db18     libvcruntime:undname.obj
 0002:00000b40       ??_C@_0CM@FCBBDIGB@?$GAeh?5vector?5vbase?5copy?5construct@ 000000018000db40     libvcruntime:undname.obj
 0002:00000b70       ??_C@_0BL@CLIPGLGB@?$GAdynamic?5initializer?5for?5?8@ 000000018000db70     libvcruntime:undname.obj
 0002:00000b90       ??_C@_0CB@PDBIFEP@?$GAdynamic?5atexit?5destructor?5for?5@ 000000018000db90     libvcruntime:undname.obj
 0002:00000bb8       ??_C@_0CD@CGAJBKEJ@?$GAvector?5copy?5constructor?5iterat@ 000000018000dbb8     libvcruntime:undname.obj
 0002:00000be0       ??_C@_0CJ@GJELGAMM@?$GAvector?5vbase?5copy?5constructor?5@ 000000018000dbe0     libvcruntime:undname.obj
 0002:00000c10       ??_C@_0CL@FGIJHLCE@?$GAmanaged?5vector?5copy?5constructo@ 000000018000dc10     libvcruntime:undname.obj
 0002:00000c40       ??_C@_0BM@PMGGMLDN@?$GAlocal?5static?5thread?5guard?8@ 000000018000dc40     libvcruntime:undname.obj
 0002:00000c60       ??_C@_0N@BDNMDMOL@operator?5?$CC?$CC?5@ 000000018000dc60     libvcruntime:undname.obj
 0002:00000c70       ??_C@_0BC@GGEBGALA@operator?5co_await@ 000000018000dc70     libvcruntime:undname.obj
 0002:00000c88       ??_C@_0BC@DAFEJGAK@?5Type?5Descriptor?8@ 000000018000dc88     libvcruntime:undname.obj
 0002:00000ca0       ??_C@_0BM@LDKODKLH@?5Base?5Class?5Descriptor?5at?5?$CI@ 000000018000dca0     libvcruntime:undname.obj
 0002:00000cc0       ??_C@_0BD@LGICGFMM@?5Base?5Class?5Array?8@ 000000018000dcc0     libvcruntime:undname.obj
 0002:00000cd8       ??_C@_0BN@MECKDCOJ@?5Class?5Hierarchy?5Descriptor?8@ 000000018000dcd8     libvcruntime:undname.obj
 0002:00000cf8       ??_C@_0BK@CFCOFLF@?5Complete?5Object?5Locator?8@ 000000018000dcf8     libvcruntime:undname.obj
 0002:00000d30       ??_C@_1DM@KHCHBNEB@?$AAa?$AAp?$AAi?$AA?9?$AAm?$AAs?$AA?9?$AAw?$AAi?$AAn?$AA?9?$AAc?$AAo?$AAr?$AAe@ 000000018000dd30     libvcruntime:winapi_downlevel.obj
 0002:00000d70       ??_C@_1DK@LPPGFMPP@?$AAa?$AAp?$AAi?$AA?9?$AAm?$AAs?$AA?9?$AAw?$AAi?$AAn?$AA?9?$AAc?$AAo?$AAr?$AAe@ 000000018000dd70     libvcruntime:winapi_downlevel.obj
 0002:00000db0       ??_C@_1BC@GDMECMAK@?$AAk?$AAe?$AAr?$AAn?$AAe?$AAl?$AA3?$AA2@ 000000018000ddb0     libvcruntime:winapi_downlevel.obj
 0002:00000dc8       ??_C@_1BA@PFFKHIOG@?$AAa?$AAp?$AAi?$AA?9?$AAm?$AAs?$AA?9@ 000000018000ddc8     libvcruntime:winapi_downlevel.obj
 0002:00000dd8       ??_C@_1BA@IAIFMGEF@?$AAe?$AAx?$AAt?$AA?9?$AAm?$AAs?$AA?9@ 000000018000ddd8     libvcruntime:winapi_downlevel.obj
 0002:00000df0       ??_C@_08KNHFBNJ@FlsAlloc@  000000018000ddf0     libvcruntime:winapi_downlevel.obj
 0002:00000e08       ??_C@_07PEJMOBNF@FlsFree@  000000018000de08     libvcruntime:winapi_downlevel.obj
 0002:00000e18       ??_C@_0M@GDNOONDI@FlsGetValue@ 000000018000de18     libvcruntime:winapi_downlevel.obj
 0002:00000e30       ??_C@_0M@JCPCPOEF@FlsSetValue@ 000000018000de30     libvcruntime:winapi_downlevel.obj
 0002:00000e48       ??_C@_0BM@HCFOFFN@InitializeCriticalSectionEx@ 000000018000de48     libvcruntime:winapi_downlevel.obj
 0002:00000e70       __acrt_exception_action_table 000000018000de70     libucrt:exception_filter.obj
 0002:00000f30       __acrt_signal_action_table_count 000000018000df30     libucrt:exception_filter.obj
 0002:00000f38       __acrt_signal_action_first_fpe_index 000000018000df38     libucrt:exception_filter.obj
 0002:00000f40       __acrt_signal_action_fpe_count 000000018000df40     libucrt:exception_filter.obj
 0002:00000f48       ??_C@_1BI@BGOHAHKC@?$AAm?$AAs?$AAc?$AAo?$AAr?$AAe?$AAe?$AA?4?$AAd?$AAl?$AAl?$AA?$AA@ 000000018000df48     libucrt:exit.obj
 0002:00000f60       ??_C@_0P@MIGLKIOC@CorExitProcess?$AA@ 000000018000df60     libucrt:exit.obj
 0002:000011e0       __lc_time_c                000000018000e1e0     libucrt:nlsdata.obj
 0002:000014a0       ??_C@_03KOEHGMDN@Sun?$AA@  000000018000e4a0     libucrt:nlsdata.obj
 0002:000014a4       ??_C@_03PDAGKDH@Mon?$AA@   000000018000e4a4     libucrt:nlsdata.obj
 0002:000014a8       ??_C@_03NAGEINEP@Tue?$AA@  000000018000e4a8     libucrt:nlsdata.obj
 0002:000014ac       ??_C@_03MHOMLAJA@Wed?$AA@  000000018000e4ac     libucrt:nlsdata.obj
 0002:000014b0       ??_C@_03IOFIKPDN@Thu?$AA@  000000018000e4b0     libucrt:nlsdata.obj
 0002:000014b4       ??_C@_03IDIOELNC@Fri?$AA@  000000018000e4b4     libucrt:nlsdata.obj
 0002:000014b8       ??_C@_03FEFJNEK@Sat?$AA@   000000018000e4b8     libucrt:nlsdata.obj
 0002:000014bc       ??_C@_06OOPIFAJ@Sunday?$AA@ 000000018000e4bc     libucrt:nlsdata.obj
 0002:000014c4       ??_C@_06JLEDEDGH@Monday?$AA@ 000000018000e4c4     libucrt:nlsdata.obj
 0002:000014d0       ??_C@_07BAAGCFCM@Tuesday?$AA@ 000000018000e4d0     libucrt:nlsdata.obj
 0002:000014d8       ??_C@_09DLIGFAKA@Wednesday?$AA@ 000000018000e4d8     libucrt:nlsdata.obj
 0002:000014e8       ??_C@_08HACCIKIA@Thursday?$AA@ 000000018000e4e8     libucrt:nlsdata.obj
 0002:000014f4       ??_C@_06JECMNKMI@Friday?$AA@ 000000018000e4f4     libucrt:nlsdata.obj
 0002:00001500       ??_C@_08INBOOONO@Saturday?$AA@ 000000018000e500     libucrt:nlsdata.obj
 0002:0000150c       ??_C@_03JIHJHPIE@Jan?$AA@  000000018000e50c     libucrt:nlsdata.obj
 0002:00001510       ??_C@_03HJBDCHOM@Feb?$AA@  000000018000e510     libucrt:nlsdata.obj
 0002:00001514       ??_C@_03ODNJBKGA@Mar?$AA@  000000018000e514     libucrt:nlsdata.obj
 0002:00001518       ??_C@_03LEOLGMJP@Apr?$AA@  000000018000e518     libucrt:nlsdata.obj
 0002:0000151c       ??_C@_03CNMDKL@May?$AA@    000000018000e51c     libucrt:nlsdata.obj
 0002:00001520       ??_C@_03IDFGHECI@Jun?$AA@  000000018000e520     libucrt:nlsdata.obj
 0002:00001524       ??_C@_03LBGABGKK@Jul?$AA@  000000018000e524     libucrt:nlsdata.obj
 0002:00001528       ??_C@_03IFJFEIGA@Aug?$AA@  000000018000e528     libucrt:nlsdata.obj
 0002:0000152c       ??_C@_03GGCAPAJC@Sep?$AA@  000000018000e52c     libucrt:nlsdata.obj
 0002:00001530       ??_C@_03BMAOKBAD@Oct?$AA@  000000018000e530     libucrt:nlsdata.obj
 0002:00001534       ??_C@_03JPJOFNIA@Nov?$AA@  000000018000e534     libucrt:nlsdata.obj
 0002:00001538       ??_C@_03MKABNOCG@Dec?$AA@  000000018000e538     libucrt:nlsdata.obj
 0002:00001540       ??_C@_07CGJPFGJA@January?$AA@ 000000018000e540     libucrt:nlsdata.obj
 0002:00001548       ??_C@_08GNJGEPFN@February?$AA@ 000000018000e548     libucrt:nlsdata.obj
 0002:00001554       ??_C@_05HPCKOFNC@March?$AA@ 000000018000e554     libucrt:nlsdata.obj
 0002:0000155c       ??_C@_05DMJDNLEJ@April?$AA@ 000000018000e55c     libucrt:nlsdata.obj
 0002:00001564       ??_C@_04CNLMGBGM@June?$AA@ 000000018000e564     libucrt:nlsdata.obj
 0002:0000156c       ??_C@_04MIEPOIFP@July?$AA@ 000000018000e56c     libucrt:nlsdata.obj
 0002:00001574       ??_C@_06LBBHFDDG@August?$AA@ 000000018000e574     libucrt:nlsdata.obj
 0002:00001580       ??_C@_09BHHEALKD@September?$AA@ 000000018000e580     libucrt:nlsdata.obj
 0002:00001590       ??_C@_07JJNFCEND@October?$AA@ 000000018000e590     libucrt:nlsdata.obj
 0002:00001598       ??_C@_08HCHEGEOA@November?$AA@ 000000018000e598     libucrt:nlsdata.obj
 0002:000015a8       ??_C@_08EDHMEBNP@December?$AA@ 000000018000e5a8     libucrt:nlsdata.obj
 0002:000015b4       ??_C@_02DEDBPAFC@AM?$AA@   000000018000e5b4     libucrt:nlsdata.obj
 0002:000015b8       ??_C@_02CJNFDJBF@PM?$AA@   000000018000e5b8     libucrt:nlsdata.obj
 0002:000015c0       ??_C@_08BPBNCDIB@MM?1dd?1yy?$AA@ 000000018000e5c0     libucrt:nlsdata.obj
 0002:000015d0       ??_C@_0BE@CKGJFCPC@dddd?0?5MMMM?5dd?0?5yyyy?$AA@ 000000018000e5d0     libucrt:nlsdata.obj
 0002:000015e8       ??_C@_08JCCMCCIL@HH?3mm?3ss?$AA@ 000000018000e5e8     libucrt:nlsdata.obj
 0002:000015f8       ??_C@_17MBGCMIPB@?$AAS?$AAu?$AAn?$AA?$AA@ 000000018000e5f8     libucrt:nlsdata.obj
 0002:00001600       ??_C@_17KBOMKBF@?$AAM?$AAo?$AAn?$AA?$AA@ 000000018000e600     libucrt:nlsdata.obj
 0002:00001608       ??_C@_17BMKGEGOJ@?$AAT?$AAu?$AAe?$AA?$AA@ 000000018000e608     libucrt:nlsdata.obj
 0002:00001610       ??_C@_17CJEDCEPE@?$AAW?$AAe?$AAd?$AA?$AA@ 000000018000e610     libucrt:nlsdata.obj
 0002:00001618       ??_C@_17PDPHAADD@?$AAT?$AAh?$AAu?$AA?$AA@ 000000018000e618     libucrt:nlsdata.obj
 0002:00001620       ??_C@_17HFOLPPLP@?$AAF?$AAr?$AAi?$AA?$AA@ 000000018000e620     libucrt:nlsdata.obj
 0002:00001628       ??_C@_17GGIBDPIH@?$AAS?$AAa?$AAt?$AA?$AA@ 000000018000e628     libucrt:nlsdata.obj
 0002:00001630       ??_C@_1O@IHNHDHPB@?$AAS?$AAu?$AAn?$AAd?$AAa?$AAy?$AA?$AA@ 000000018000e630     libucrt:nlsdata.obj
 0002:00001640       ??_C@_1O@MMNBFLIA@?$AAM?$AAo?$AAn?$AAd?$AAa?$AAy?$AA?$AA@ 000000018000e640     libucrt:nlsdata.obj
 0002:00001650       ??_C@_1BA@ENFBFFEK@?$AAT?$AAu?$AAe?$AAs?$AAd?$AAa?$AAy?$AA?$AA@ 000000018000e650     libucrt:nlsdata.obj
 0002:00001660       ??_C@_1BE@EBOGMDOH@?$AAW?$AAe?$AAd?$AAn?$AAe?$AAs?$AAd?$AAa?$AAy?$AA?$AA@ 000000018000e660     libucrt:nlsdata.obj
 0002:00001678       ??_C@_1BC@HHMNLIHE@?$AAT?$AAh?$AAu?$AAr?$AAs?$AAd?$AAa?$AAy?$AA?$AA@ 000000018000e678     libucrt:nlsdata.obj
 0002:00001690       ??_C@_1O@PDICJHAG@?$AAF?$AAr?$AAi?$AAd?$AAa?$AAy?$AA?$AA@ 000000018000e690     libucrt:nlsdata.obj
 0002:000016a0       ??_C@_1BC@ENMNNPAJ@?$AAS?$AAa?$AAt?$AAu?$AAr?$AAd?$AAa?$AAy?$AA?$AA@ 000000018000e6a0     libucrt:nlsdata.obj
 0002:000016b8       ??_C@_17DKNBKCHM@?$AAJ?$AAa?$AAn?$AA?$AA@ 000000018000e6b8     libucrt:nlsdata.obj
 0002:000016c0       ??_C@_17LMDJEKJN@?$AAF?$AAe?$AAb?$AA?$AA@ 000000018000e6c0     libucrt:nlsdata.obj
 0002:000016c8       ??_C@_17CKNLEDEC@?$AAM?$AAa?$AAr?$AA?$AA@ 000000018000e6c8     libucrt:nlsdata.obj
 0002:000016d0       ??_C@_17LFPOIHDD@?$AAA?$AAp?$AAr?$AA?$AA@ 000000018000e6d0     libucrt:nlsdata.obj
 0002:000016d8       ??_C@_17PNNKMEED@?$AAM?$AAa?$AAy?$AA?$AA@ 000000018000e6d8     libucrt:nlsdata.obj
 0002:000016e0       ??_C@_17KCJGOCPB@?$AAJ?$AAu?$AAn?$AA?$AA@ 000000018000e6e0     libucrt:nlsdata.obj
 0002:000016e8       ??_C@_17IJPCKHK@?$AAJ?$AAu?$AAl?$AA?$AA@ 000000018000e6e8     libucrt:nlsdata.obj
 0002:000016f0       ??_C@_17ICPELBCN@?$AAA?$AAu?$AAg?$AA?$AA@ 000000018000e6f0     libucrt:nlsdata.obj
 0002:000016f8       ??_C@_17HCHCOKMG@?$AAS?$AAe?$AAp?$AA?$AA@ 000000018000e6f8     libucrt:nlsdata.obj
 0002:00001700       ??_C@_17FNLKOI@?$AAO?$AAc?$AAt?$AA?$AA@ 000000018000e700     libucrt:nlsdata.obj
 0002:00001708       ??_C@_17BBDMLCIG@?$AAN?$AAo?$AAv?$AA?$AA@ 000000018000e708     libucrt:nlsdata.obj
 0002:00001710       ??_C@_17EGKACKIF@?$AAD?$AAe?$AAc?$AA?$AA@ 000000018000e710     libucrt:nlsdata.obj
 0002:00001718       ??_C@_1BA@EFMEIEBA@?$AAJ?$AAa?$AAn?$AAu?$AAa?$AAr?$AAy?$AA?$AA@ 000000018000e718     libucrt:nlsdata.obj
 0002:00001728       ??_C@_1BC@JGDDFFAM@?$AAF?$AAe?$AAb?$AAr?$AAu?$AAa?$AAr?$AAy?$AA?$AA@ 000000018000e728     libucrt:nlsdata.obj
 0002:00001740       ??_C@_1M@IKEENEDF@?$AAM?$AAa?$AAr?$AAc?$AAh?$AA?$AA@ 000000018000e740     libucrt:nlsdata.obj
 0002:00001750       ??_C@_1M@GJNLMHFD@?$AAA?$AAp?$AAr?$AAi?$AAl?$AA?$AA@ 000000018000e750     libucrt:nlsdata.obj
 0002:00001760       ??_C@_19EPFLPGAP@?$AAJ?$AAu?$AAn?$AAe?$AA?$AA@ 000000018000e760     libucrt:nlsdata.obj
 0002:00001770       ??_C@_19BIFMLPCD@?$AAJ?$AAu?$AAl?$AAy?$AA?$AA@ 000000018000e770     libucrt:nlsdata.obj
 0002:00001780       ??_C@_1O@PAHLKOAC@?$AAA?$AAu?$AAg?$AAu?$AAs?$AAt?$AA?$AA@ 000000018000e780     libucrt:nlsdata.obj
 0002:00001790       ??_C@_1BE@DKAAMBJL@?$AAS?$AAe?$AAp?$AAt?$AAe?$AAm?$AAb?$AAe?$AAr?$AA?$AA@ 000000018000e790     libucrt:nlsdata.obj
 0002:000017a8       ??_C@_1BA@EPANDLNG@?$AAO?$AAc?$AAt?$AAo?$AAb?$AAe?$AAr?$AA?$AA@ 000000018000e7a8     libucrt:nlsdata.obj
 0002:000017b8       ??_C@_1BC@BGLIFPF@?$AAN?$AAo?$AAv?$AAe?$AAm?$AAb?$AAe?$AAr?$AA?$AA@ 000000018000e7b8     libucrt:nlsdata.obj
 0002:000017d0       ??_C@_1BC@FEMKIFH@?$AAD?$AAe?$AAc?$AAe?$AAm?$AAb?$AAe?$AAr?$AA?$AA@ 000000018000e7d0     libucrt:nlsdata.obj
 0002:000017e4       ??_C@_15ODEHAHHF@?$AAA?$AAM?$AA?$AA@ 000000018000e7e4     libucrt:nlsdata.obj
 0002:000017ec       ??_C@_15CLMNNGEL@?$AAP?$AAM?$AA?$AA@ 000000018000e7ec     libucrt:nlsdata.obj
 0002:000017f8       ??_C@_1BC@IEBCMHCM@?$AAM?$AAM?$AA?1?$AAd?$AAd?$AA?1?$AAy?$AAy?$AA?$AA@ 000000018000e7f8     libucrt:nlsdata.obj
 0002:00001810       ??_C@_1CI@KNAKOEBC@?$AAd?$AAd?$AAd?$AAd?$AA?0?$AA?5?$AAM?$AAM?$AAM?$AAM?$AA?5?$AAd?$AAd?$AA?0?$AA?5?$AAy?$AAy?$AAy?$AAy?$AA?$AA@ 000000018000e810     libucrt:nlsdata.obj
 0002:00001838       ??_C@_1BC@GDGBMEMK@?$AAH?$AAH?$AA?3?$AAm?$AAm?$AA?3?$AAs?$AAs?$AA?$AA@ 000000018000e838     libucrt:nlsdata.obj
 0002:00001850       ??_C@_1M@BMHNFIME@?$AAe?$AAn?$AA?9?$AAU?$AAS?$AA?$AA@ 000000018000e850     libucrt:nlsdata.obj
 0002:00001880       ??_C@_1M@HPNHIDJI@?$AAj?$AAa?$AA?9?$AAJ?$AAP?$AA?$AA@ 000000018000e880     libucrt:mbctype.obj
 0002:00001890       ??_C@_1M@BIBDDEMK@?$AAz?$AAh?$AA?9?$AAC?$AAN?$AA?$AA@ 000000018000e890     libucrt:mbctype.obj
 0002:000018a0       ??_C@_1M@JLOOOEGK@?$AAk?$AAo?$AA?9?$AAK?$AAR?$AA?$AA@ 000000018000e8a0     libucrt:mbctype.obj
 0002:000018b0       ??_C@_1M@CLNBBOPM@?$AAz?$AAh?$AA?9?$AAT?$AAW?$AA?$AA@ 000000018000e8b0     libucrt:mbctype.obj
 0002:00001960       ??_C@_1EA@JGEFHKEI@?$AAa?$AAp?$AAi?$AA?9?$AAm?$AAs?$AA?9?$AAw?$AAi?$AAn?$AA?9?$AAc?$AAo?$AAr?$AAe?$AA?9?$AAd?$AAa?$AAt?$AAe?$AAt?$AAi?$AAm?$AAe?$AA?9?$AAl?$AA1?$AA?9?$AA1?$AA?9?$AA1?$AA?$AA@ 000000018000e960     libucrt:winapi_thunks.obj
 0002:000019a0       ??_C@_1DM@KHCHBNEB@?$AAa?$AAp?$AAi?$AA?9?$AAm?$AAs?$AA?9?$AAw?$AAi?$AAn?$AA?9?$AAc?$AAo?$AAr?$AAe?$AA?9?$AAf?$AAi?$AAb?$AAe?$AAr?$AAs?$AA?9?$AAl?$AA1?$AA?9?$AA1?$AA?9?$AA1?$AA?$AA@ 000000018000e9a0     libucrt:winapi_thunks.obj
 0002:000019e0       ??_C@_1DI@IJCEHOCB@?$AAa?$AAp?$AAi?$AA?9?$AAm?$AAs?$AA?9?$AAw?$AAi?$AAn?$AA?9?$AAc?$AAo?$AAr?$AAe?$AA?9?$AAf?$AAi?$AAl?$AAe?$AA?9?$AAl?$AA1?$AA?9?$AA2?$AA?9?$AA2?$AA?$AA@ 000000018000e9e0     libucrt:winapi_thunks.obj
 0002:00001a20       ??_C@_1EI@MPIAOHOC@?$AAa?$AAp?$AAi?$AA?9?$AAm?$AAs?$AA?9?$AAw?$AAi?$AAn?$AA?9?$AAc?$AAo?$AAr?$AAe?$AA?9?$AAl?$AAo?$AAc?$AAa?$AAl?$AAi?$AAz?$AAa?$AAt?$AAi?$AAo?$AAn?$AA?9?$AAl?$AA1?$AA?9@ 000000018000ea20     libucrt:winapi_thunks.obj
 0002:00001a70       ??_C@_1FK@FPHCKFIE@?$AAa?$AAp?$AAi?$AA?9?$AAm?$AAs?$AA?9?$AAw?$AAi?$AAn?$AA?9?$AAc?$AAo?$AAr?$AAe?$AA?9?$AAl?$AAo?$AAc?$AAa?$AAl?$AAi?$AAz?$AAa?$AAt?$AAi?$AAo?$AAn?$AA?9?$AAo?$AAb?$AAs@ 000000018000ea70     libucrt:winapi_thunks.obj
 0002:00001ad0       ??_C@_1EM@DILCGIIO@?$AAa?$AAp?$AAi?$AA?9?$AAm?$AAs?$AA?9?$AAw?$AAi?$AAn?$AA?9?$AAc?$AAo?$AAr?$AAe?$AA?9?$AAp?$AAr?$AAo?$AAc?$AAe?$AAs?$AAs?$AAt?$AAh?$AAr?$AAe?$AAa?$AAd?$AAs?$AA?9?$AAl@ 000000018000ead0     libucrt:winapi_thunks.obj
 0002:00001b20       ??_C@_1DM@LNCGDDPN@?$AAa?$AAp?$AAi?$AA?9?$AAm?$AAs?$AA?9?$AAw?$AAi?$AAn?$AA?9?$AAc?$AAo?$AAr?$AAe?$AA?9?$AAs?$AAt?$AAr?$AAi?$AAn?$AAg?$AA?9?$AAl?$AA1?$AA?9?$AA1?$AA?9?$AA0?$AA?$AA@ 000000018000eb20     libucrt:winapi_thunks.obj
 0002:00001b60       ??_C@_1DK@LPPGFMPP@?$AAa?$AAp?$AAi?$AA?9?$AAm?$AAs?$AA?9?$AAw?$AAi?$AAn?$AA?9?$AAc?$AAo?$AAr?$AAe?$AA?9?$AAs?$AAy?$AAn?$AAc?$AAh?$AA?9?$AAl?$AA1?$AA?9?$AA2?$AA?9?$AA0?$AA?$AA@ 000000018000eb60     libucrt:winapi_thunks.obj
 0002:00001ba0       ??_C@_1DO@FPAPJEMD@?$AAa?$AAp?$AAi?$AA?9?$AAm?$AAs?$AA?9?$AAw?$AAi?$AAn?$AA?9?$AAc?$AAo?$AAr?$AAe?$AA?9?$AAs?$AAy?$AAs?$AAi?$AAn?$AAf?$AAo?$AA?9?$AAl?$AA1?$AA?9?$AA2?$AA?9?$AA1?$AA?$AA@ 000000018000eba0     libucrt:winapi_thunks.obj
 0002:00001be0       ??_C@_1DK@NDHNAHIO@?$AAa?$AAp?$AAi?$AA?9?$AAm?$AAs?$AA?9?$AAw?$AAi?$AAn?$AA?9?$AAc?$AAo?$AAr?$AAe?$AA?9?$AAw?$AAi?$AAn?$AAr?$AAt?$AA?9?$AAl?$AA1?$AA?9?$AA1?$AA?9?$AA0?$AA?$AA@ 000000018000ebe0     libucrt:winapi_thunks.obj
 0002:00001c20       ??_C@_1DM@KGHDGBCM@?$AAa?$AAp?$AAi?$AA?9?$AAm?$AAs?$AA?9?$AAw?$AAi?$AAn?$AA?9?$AAc?$AAo?$AAr?$AAe?$AA?9?$AAx?$AAs?$AAt?$AAa?$AAt?$AAe?$AA?9?$AAl?$AA2?$AA?9?$AA1?$AA?9?$AA0?$AA?$AA@ 000000018000ec20     libucrt:winapi_thunks.obj
 0002:00001c60       ??_C@_1EO@IJIOEFOH@?$AAa?$AAp?$AAi?$AA?9?$AAm?$AAs?$AA?9?$AAw?$AAi?$AAn?$AA?9?$AAr?$AAt?$AAc?$AAo?$AAr?$AAe?$AA?9?$AAn?$AAt?$AAu?$AAs?$AAe?$AAr?$AA?9?$AAw?$AAi?$AAn?$AAd?$AAo?$AAw?$AA?9@ 000000018000ec60     libucrt:winapi_thunks.obj
 0002:00001cb0       ??_C@_1FG@HHGEKANL@?$AAa?$AAp?$AAi?$AA?9?$AAm?$AAs?$AA?9?$AAw?$AAi?$AAn?$AA?9?$AAs?$AAe?$AAc?$AAu?$AAr?$AAi?$AAt?$AAy?$AA?9?$AAs?$AAy?$AAs?$AAt?$AAe?$AAm?$AAf?$AAu?$AAn?$AAc?$AAt?$AAi@ 000000018000ecb0     libucrt:winapi_thunks.obj
 0002:00001d10       ??_C@_1EG@DBIOJECG@?$AAe?$AAx?$AAt?$AA?9?$AAm?$AAs?$AA?9?$AAw?$AAi?$AAn?$AA?9?$AAn?$AAt?$AAu?$AAs?$AAe?$AAr?$AA?9?$AAd?$AAi?$AAa?$AAl?$AAo?$AAg?$AAb?$AAo?$AAx?$AA?9?$AAl?$AA1?$AA?9?$AA1@ 000000018000ed10     libucrt:winapi_thunks.obj
 0002:00001d60       ??_C@_1EO@FIHMJCLF@?$AAe?$AAx?$AAt?$AA?9?$AAm?$AAs?$AA?9?$AAw?$AAi?$AAn?$AA?9?$AAn?$AAt?$AAu?$AAs?$AAe?$AAr?$AA?9?$AAw?$AAi?$AAn?$AAd?$AAo?$AAw?$AAs?$AAt?$AAa?$AAt?$AAi?$AAo?$AAn?$AA?9@ 000000018000ed60     libucrt:winapi_thunks.obj
 0002:00001db0       ??_C@_1BC@DNHGCMLG@?$AAa?$AAd?$AAv?$AAa?$AAp?$AAi?$AA3?$AA2?$AA?$AA@ 000000018000edb0     libucrt:winapi_thunks.obj
 0002:00001dc8       ??_C@_1BC@GDMECMAK@?$AAk?$AAe?$AAr?$AAn?$AAe?$AAl?$AA3?$AA2?$AA?$AA@ 000000018000edc8     libucrt:winapi_thunks.obj
 0002:00001de0       ??_C@_1M@OAIMIKLP@?$AAn?$AAt?$AAd?$AAl?$AAl?$AA?$AA@ 000000018000ede0     libucrt:winapi_thunks.obj
 0002:00001df0       ??_C@_1EG@DPGNFKGC@?$AAa?$AAp?$AAi?$AA?9?$AAm?$AAs?$AA?9?$AAw?$AAi?$AAn?$AA?9?$AAa?$AAp?$AAp?$AAm?$AAo?$AAd?$AAe?$AAl?$AA?9?$AAr?$AAu?$AAn?$AAt?$AAi?$AAm?$AAe?$AA?9?$AAl?$AA1?$AA?9?$AA1@ 000000018000edf0     libucrt:winapi_thunks.obj
 0002:00001e38       ??_C@_1O@BCCLBEOE@?$AAu?$AAs?$AAe?$AAr?$AA3?$AA2?$AA?$AA@ 000000018000ee38     libucrt:winapi_thunks.obj
 0002:00001e48       ??_C@_1BA@PFFKHIOG@?$AAa?$AAp?$AAi?$AA?9?$AAm?$AAs?$AA?9?$AA?$AA@ 000000018000ee48     libucrt:winapi_thunks.obj
 0002:00001e58       ??_C@_1BA@IAIFMGEF@?$AAe?$AAx?$AAt?$AA?9?$AAm?$AAs?$AA?9?$AA?$AA@ 000000018000ee58     libucrt:winapi_thunks.obj
 0002:00001e70       ??_C@_0BA@FHFNEAED@AreFileApisANSI?$AA@ 000000018000ee70     libucrt:winapi_thunks.obj
 0002:00001e88       ??_C@_08KNHFBNJ@FlsAlloc?$AA@ 000000018000ee88     libucrt:winapi_thunks.obj
 0002:00001ea0       ??_C@_07PEJMOBNF@FlsFree?$AA@ 000000018000eea0     libucrt:winapi_thunks.obj
 0002:00001eb0       ??_C@_0M@GDNOONDI@FlsGetValue?$AA@ 000000018000eeb0     libucrt:winapi_thunks.obj
 0002:00001ec8       ??_C@_0M@JCPCPOEF@FlsSetValue?$AA@ 000000018000eec8     libucrt:winapi_thunks.obj
 0002:00001ee0       ??_C@_0BM@HCFOFFN@InitializeCriticalSectionEx?$AA@ 000000018000eee0     libucrt:winapi_thunks.obj
 0002:00001f08       ??_C@_0O@KKBNKAPF@LCMapStringEx?$AA@ 000000018000ef08     libucrt:winapi_thunks.obj
 0002:00001f20       ??_C@_0BB@HBDEELFH@LocaleNameToLCID?$AA@ 000000018000ef20     libucrt:winapi_thunks.obj
 0002:00001f38       ??_C@_0CF@OJOFEIGO@AppPolicyGetProcessTerminationMe@ 000000018000ef38     libucrt:winapi_thunks.obj
 0002:00001f60       __newctype                 000000018000ef60     libucrt:ctype.obj
 0002:00002260       __newclmap                 000000018000f260     libucrt:ctype.obj
 0002:000023e0       __newcumap                 000000018000f3e0     libucrt:ctype.obj
 0002:00002560       ??_C@_15PJPFLCCM@?$AAu?$AAk?$AA?$AA@ 000000018000f560     libucrt:get_qualified_locale.obj
 0002:000033b0       ??_C@_15EMKDOKLE@?$AAa?$AAr?$AA?$AA@ 00000001800103b0     libucrt:lcidtoname_downlevel.obj
 0002:000033b8       ??_C@_15KNPADPLH@?$AAb?$AAg?$AA?$AA@ 00000001800103b8     libucrt:lcidtoname_downlevel.obj
 0002:000033c0       ??_C@_15EDMHLDMO@?$AAc?$AAa?$AA?$AA@ 00000001800103c0     libucrt:lcidtoname_downlevel.obj
 0002:000033c8       ??_C@_1O@BPEAJADD@?$AAz?$AAh?$AA?9?$AAC?$AAH?$AAS?$AA?$AA@ 00000001800103c8     libucrt:lcidtoname_downlevel.obj
 0002:000033d8       ??_C@_15LJNHCMNK@?$AAc?$AAs?$AA?$AA@ 00000001800103d8     libucrt:lcidtoname_downlevel.obj
 0002:000033e0       ??_C@_15FOMCIDHG@?$AAd?$AAa?$AA?$AA@ 00000001800103e0     libucrt:lcidtoname_downlevel.obj
 0002:000033e8       ??_C@_15NBKABECB@?$AAd?$AAe?$AA?$AA@ 00000001800103e8     libucrt:lcidtoname_downlevel.obj
 0002:000033f0       ??_C@_15GHPEIIAO@?$AAe?$AAl?$AA?$AA@ 00000001800103f0     libucrt:lcidtoname_downlevel.obj
 0002:000033f8       ??_C@_15MNPNEAIF@?$AAe?$AAn?$AA?$AA@ 00000001800103f8     libucrt:lcidtoname_downlevel.obj
 0002:00003400       ??_C@_15GPIOMPMH@?$AAe?$AAs?$AA?$AA@ 0000000180010400     libucrt:lcidtoname_downlevel.obj
 0002:00003408       ??_C@_15NGLOAKJC@?$AAf?$AAi?$AA?$AA@ 0000000180010408     libucrt:lcidtoname_downlevel.obj
 0002:00003410       ??_C@_15FBKGNKAM@?$AAf?$AAr?$AA?$AA@ 0000000180010410     libucrt:lcidtoname_downlevel.obj
 0002:00003418       ??_C@_15KGGCNEFK@?$AAh?$AAe?$AA?$AA@ 0000000180010418     libucrt:lcidtoname_downlevel.obj
 0002:00003420       ??_C@_15PGHLIDMF@?$AAh?$AAu?$AA?$AA@ 0000000180010420     libucrt:lcidtoname_downlevel.obj
 0002:00003428       ??_C@_15BIEMAPLM@?$AAi?$AAs?$AA?$AA@ 0000000180010428     libucrt:lcidtoname_downlevel.obj
 0002:00003430       ??_C@_15IFJLDHAF@?$AAi?$AAt?$AA?$AA@ 0000000180010430     libucrt:lcidtoname_downlevel.obj
 0002:00003438       ??_C@_15GEMIOCAG@?$AAj?$AAa?$AA?$AA@ 0000000180010438     libucrt:lcidtoname_downlevel.obj
 0002:00003440       ??_C@_15EPELEGJA@?$AAk?$AAo?$AA?$AA@ 0000000180010440     libucrt:lcidtoname_downlevel.obj
 0002:00003448       ??_C@_15NDDHIMN@?$AAn?$AAl?$AA?$AA@ 0000000180010448     libucrt:lcidtoname_downlevel.obj
 0002:00003450       ??_C@_15BPIGNHCD@?$AAn?$AAo?$AA?$AA@ 0000000180010450     libucrt:lcidtoname_downlevel.obj
 0002:00003458       ??_C@_15DEOPBLCG@?$AAp?$AAl?$AA?$AA@ 0000000180010458     libucrt:lcidtoname_downlevel.obj
 0002:00003460       ??_C@_15KBECGEFG@?$AAp?$AAt?$AA?$AA@ 0000000180010460     libucrt:lcidtoname_downlevel.obj
 0002:00003468       ??_C@_15GLJCBFMD@?$AAr?$AAo?$AA?$AA@ 0000000180010468     libucrt:lcidtoname_downlevel.obj
 0002:00003470       ??_C@_15FEDGKCDI@?$AAr?$AAu?$AA?$AA@ 0000000180010470     libucrt:lcidtoname_downlevel.obj
 0002:00003478       ??_C@_15GLKMLLHM@?$AAh?$AAr?$AA?$AA@ 0000000180010478     libucrt:lcidtoname_downlevel.obj
 0002:00003480       ??_C@_15CPKMFBDB@?$AAs?$AAk?$AA?$AA@ 0000000180010480     libucrt:lcidtoname_downlevel.obj
 0002:00003488       ??_C@_15BAAIOGMK@?$AAs?$AAq?$AA?$AA@ 0000000180010488     libucrt:lcidtoname_downlevel.obj
 0002:00003490       ??_C@_15INNPNOHD@?$AAs?$AAv?$AA?$AA@ 0000000180010490     libucrt:lcidtoname_downlevel.obj
 0002:00003498       ??_C@_15CABMMOGH@?$AAt?$AAh?$AA?$AA@ 0000000180010498     libucrt:lcidtoname_downlevel.obj
 0002:000034a0       ??_C@_15BPLIHJJM@?$AAt?$AAr?$AA?$AA@ 00000001800104a0     libucrt:lcidtoname_downlevel.obj
 0002:000034a8       ??_C@_15NEOEKKDJ@?$AAu?$AAr?$AA?$AA@ 00000001800104a8     libucrt:lcidtoname_downlevel.obj
 0002:000034b0       ??_C@_15NFICGAJK@?$AAi?$AAd?$AA?$AA@ 00000001800104b0     libucrt:lcidtoname_downlevel.obj
 0002:000034b8       ??_C@_15HPJPHDM@?$AAb?$AAe?$AA?$AA@ 00000001800104b8     libucrt:lcidtoname_downlevel.obj
 0002:000034c0       ??_C@_15LCHLGJII@?$AAs?$AAl?$AA?$AA@ 00000001800104c0     libucrt:lcidtoname_downlevel.obj
 0002:000034c8       ??_C@_15PCFJPHHO@?$AAe?$AAt?$AA?$AA@ 00000001800104c8     libucrt:lcidtoname_downlevel.obj
 0002:000034d0       ??_C@_15HPFPGODN@?$AAl?$AAv?$AA?$AA@ 00000001800104d0     libucrt:lcidtoname_downlevel.obj
 0002:000034d8       ??_C@_15NFFGKGLG@?$AAl?$AAt?$AA?$AA@ 00000001800104d8     libucrt:lcidtoname_downlevel.obj
 0002:000034e0       ??_C@_15BDAKCCHN@?$AAf?$AAa?$AA?$AA@ 00000001800104e0     libucrt:lcidtoname_downlevel.obj
 0002:000034e8       ??_C@_15NFGIAIAJ@?$AAv?$AAi?$AA?$AA@ 00000001800104e8     libucrt:lcidtoname_downlevel.obj
 0002:000034f0       ??_C@_15LMKNDMHN@?$AAh?$AAy?$AA?$AA@ 00000001800104f0     libucrt:lcidtoname_downlevel.obj
 0002:000034f8       ??_C@_15IJBHMCFL@?$AAa?$AAz?$AA?$AA@ 00000001800104f8     libucrt:lcidtoname_downlevel.obj
 0002:00003500       ??_C@_15EKOFJABL@?$AAe?$AAu?$AA?$AA@ 0000000180010500     libucrt:lcidtoname_downlevel.obj
 0002:00003508       ??_C@_15BGHADCNK@?$AAm?$AAk?$AA?$AA@ 0000000180010508     libucrt:lcidtoname_downlevel.obj
 0002:00003510       ??_C@_15JDNICKHM@?$AAa?$AAf?$AA?$AA@ 0000000180010510     libucrt:lcidtoname_downlevel.obj
 0002:00003518       ??_C@_15KPJEDBKD@?$AAk?$AAa?$AA?$AA@ 0000000180010518     libucrt:lcidtoname_downlevel.obj
 0002:00003520       ??_C@_15PDNFFFEO@?$AAf?$AAo?$AA?$AA@ 0000000180010520     libucrt:lcidtoname_downlevel.obj
 0002:00003528       ??_C@_15OMLEGLOC@?$AAh?$AAi?$AA?$AA@ 0000000180010528     libucrt:lcidtoname_downlevel.obj
 0002:00003530       ??_C@_15IDNNENKK@?$AAm?$AAs?$AA?$AA@ 0000000180010530     libucrt:lcidtoname_downlevel.obj
 0002:00003538       ??_C@_15MACJNBMH@?$AAk?$AAk?$AA?$AA@ 0000000180010538     libucrt:lcidtoname_downlevel.obj
 0002:00003540       ??_C@_15DKDJEOND@?$AAk?$AAy?$AA?$AA@ 0000000180010540     libucrt:lcidtoname_downlevel.obj
 0002:00003548       ??_C@_15DFGDLJBG@?$AAs?$AAw?$AA?$AA@ 0000000180010548     libucrt:lcidtoname_downlevel.obj
 0002:00003550       ??_C@_15BBFAICNG@?$AAu?$AAz?$AA?$AA@ 0000000180010550     libucrt:lcidtoname_downlevel.obj
 0002:00003558       ??_C@_15DKNDCGEA@?$AAt?$AAt?$AA?$AA@ 0000000180010558     libucrt:lcidtoname_downlevel.obj
 0002:00003560       ??_C@_15MGIFMDPL@?$AAp?$AAa?$AA?$AA@ 0000000180010560     libucrt:lcidtoname_downlevel.obj
 0002:00003568       ??_C@_15HCNDBBA@?$AAg?$AAu?$AA?$AA@ 0000000180010568     libucrt:lcidtoname_downlevel.obj
 0002:00003570       ??_C@_15FNBEIBON@?$AAt?$AAa?$AA?$AA@ 0000000180010570     libucrt:lcidtoname_downlevel.obj
 0002:00003578       ??_C@_15NCHGBGLK@?$AAt?$AAe?$AA?$AA@ 0000000180010578     libucrt:lcidtoname_downlevel.obj
 0002:00003580       ??_C@_15PHPHCBPF@?$AAk?$AAn?$AA?$AA@ 0000000180010580     libucrt:lcidtoname_downlevel.obj
 0002:00003588       ??_C@_15DLGBCKMP@?$AAm?$AAr?$AA?$AA@ 0000000180010588     libucrt:lcidtoname_downlevel.obj
 0002:00003590       ??_C@_15EABBLBFF@?$AAs?$AAa?$AA?$AA@ 0000000180010590     libucrt:lcidtoname_downlevel.obj
 0002:00003598       ??_C@_15CBKOMCOI@?$AAm?$AAn?$AA?$AA@ 0000000180010598     libucrt:lcidtoname_downlevel.obj
 0002:000035a0       ??_C@_15CKDMCJAF@?$AAg?$AAl?$AA?$AA@ 00000001800105a0     libucrt:lcidtoname_downlevel.obj
 0002:000035a8       ??_C@_17CNJFBPG@?$AAk?$AAo?$AAk?$AA?$AA@ 00000001800105a8     libucrt:lcidtoname_downlevel.obj
 0002:000035b0       ??_C@_17FFBJICPL@?$AAs?$AAy?$AAr?$AA?$AA@ 00000001800105b0     libucrt:lcidtoname_downlevel.obj
 0002:000035b8       ??_C@_17KPNDCPAF@?$AAd?$AAi?$AAv?$AA?$AA@ 00000001800105b8     libucrt:lcidtoname_downlevel.obj
 0002:000035c0       ??_C@_11LOCGONAA@?$AA?$AA@ 00000001800105c0     libucrt:lcidtoname_downlevel.obj
 0002:000035c8       ??_C@_1M@OKAHONE@?$AAa?$AAr?$AA?9?$AAS?$AAA?$AA?$AA@ 00000001800105c8     libucrt:lcidtoname_downlevel.obj
 0002:000035d8       ??_C@_1M@FFFIGIGK@?$AAb?$AAg?$AA?9?$AAB?$AAG?$AA?$AA@ 00000001800105d8     libucrt:lcidtoname_downlevel.obj
 0002:000035e8       ??_C@_1M@BJNKEDC@?$AAc?$AAa?$AA?9?$AAE?$AAS?$AA?$AA@ 00000001800105e8     libucrt:lcidtoname_downlevel.obj
 0002:000035f8       ??_C@_1M@IJJHFJHA@?$AAc?$AAs?$AA?9?$AAC?$AAZ?$AA?$AA@ 00000001800105f8     libucrt:lcidtoname_downlevel.obj
 0002:00003608       ??_C@_1M@CLPEOBGI@?$AAd?$AAa?$AA?9?$AAD?$AAK?$AA?$AA@ 0000000180010608     libucrt:lcidtoname_downlevel.obj
 0002:00003618       ??_C@_1M@MCMADGCB@?$AAd?$AAe?$AA?9?$AAD?$AAE?$AA?$AA@ 0000000180010618     libucrt:lcidtoname_downlevel.obj
 0002:00003628       ??_C@_1M@OOCKEMAM@?$AAe?$AAl?$AA?9?$AAG?$AAR?$AA?$AA@ 0000000180010628     libucrt:lcidtoname_downlevel.obj
 0002:00003638       ??_C@_1M@DDNJFGID@?$AAf?$AAi?$AA?9?$AAF?$AAI?$AA?$AA@ 0000000180010638     libucrt:lcidtoname_downlevel.obj
 0002:00003648       ??_C@_1M@GLIPPMAC@?$AAf?$AAr?$AA?9?$AAF?$AAR?$AA?$AA@ 0000000180010648     libucrt:lcidtoname_downlevel.obj
 0002:00003658       ??_C@_1M@GFMCHPE@?$AAh?$AAe?$AA?9?$AAI?$AAL?$AA?$AA@ 0000000180010658     libucrt:lcidtoname_downlevel.obj
 0002:00003668       ??_C@_1M@MHLPGNKM@?$AAh?$AAu?$AA?9?$AAH?$AAU?$AA?$AA@ 0000000180010668     libucrt:lcidtoname_downlevel.obj
 0002:00003678       ??_C@_1M@LPDDNNPN@?$AAi?$AAs?$AA?9?$AAI?$AAS?$AA?$AA@ 0000000180010678     libucrt:lcidtoname_downlevel.obj
 0002:00003688       ??_C@_1M@MADIPODN@?$AAi?$AAt?$AA?9?$AAI?$AAT?$AA?$AA@ 0000000180010688     libucrt:lcidtoname_downlevel.obj
 0002:00003698       ??_C@_1M@IHBJJGG@?$AAn?$AAl?$AA?9?$AAN?$AAL?$AA?$AA@ 0000000180010698     libucrt:lcidtoname_downlevel.obj
 0002:000036a8       ??_C@_1M@EANAGDL@?$AAn?$AAb?$AA?9?$AAN?$AAO?$AA?$AA@ 00000001800106a8     libucrt:lcidtoname_downlevel.obj
 0002:000036b8       ??_C@_1M@NEIEMEGP@?$AAp?$AAl?$AA?9?$AAP?$AAL?$AA?$AA@ 00000001800106b8     libucrt:lcidtoname_downlevel.obj
 0002:000036c8       ??_C@_1M@BOCFIGEP@?$AAp?$AAt?$AA?9?$AAB?$AAR?$AA?$AA@ 00000001800106c8     libucrt:lcidtoname_downlevel.obj
 0002:000036d8       ??_C@_1M@IMPFOPBG@?$AAr?$AAo?$AA?9?$AAR?$AAO?$AA?$AA@ 00000001800106d8     libucrt:lcidtoname_downlevel.obj
 0002:000036e8       ??_C@_1M@IDNNEJMM@?$AAr?$AAu?$AA?9?$AAR?$AAU?$AA?$AA@ 00000001800106e8     libucrt:lcidtoname_downlevel.obj
 0002:000036f8       ??_C@_1M@LILEEOGM@?$AAh?$AAr?$AA?9?$AAH?$AAR?$AA?$AA@ 00000001800106f8     libucrt:lcidtoname_downlevel.obj
 0002:00003708       ??_C@_1M@FKIFEHPB@?$AAs?$AAk?$AA?9?$AAS?$AAK?$AA?$AA@ 0000000180010708     libucrt:lcidtoname_downlevel.obj
 0002:00003718       ??_C@_1M@LJMAMNPJ@?$AAs?$AAq?$AA?9?$AAA?$AAL?$AA?$AA@ 0000000180010718     libucrt:lcidtoname_downlevel.obj
 0002:00003728       ??_C@_1M@GIAKDKJK@?$AAs?$AAv?$AA?9?$AAS?$AAE?$AA?$AA@ 0000000180010728     libucrt:lcidtoname_downlevel.obj
 0002:00003738       ??_C@_1M@MKJKIKCL@?$AAt?$AAh?$AA?9?$AAT?$AAH?$AA?$AA@ 0000000180010738     libucrt:lcidtoname_downlevel.obj
 0002:00003748       ??_C@_1M@MFLCCMPB@?$AAt?$AAr?$AA?9?$AAT?$AAR?$AA?$AA@ 0000000180010748     libucrt:lcidtoname_downlevel.obj
 0002:00003758       ??_C@_1M@OIJHDKJN@?$AAu?$AAr?$AA?9?$AAP?$AAK?$AA?$AA@ 0000000180010758     libucrt:lcidtoname_downlevel.obj
 0002:00003768       ??_C@_1M@LHIPCIEK@?$AAi?$AAd?$AA?9?$AAI?$AAD?$AA?$AA@ 0000000180010768     libucrt:lcidtoname_downlevel.obj
 0002:00003778       ??_C@_1M@MFMOBGI@?$AAu?$AAk?$AA?9?$AAU?$AAA?$AA?$AA@ 0000000180010778     libucrt:lcidtoname_downlevel.obj
 0002:00003788       ??_C@_1M@OBGLJIPL@?$AAb?$AAe?$AA?9?$AAB?$AAY?$AA?$AA@ 0000000180010788     libucrt:lcidtoname_downlevel.obj
 0002:00003798       ??_C@_1M@BCFAJEAD@?$AAs?$AAl?$AA?9?$AAS?$AAI?$AA?$AA@ 0000000180010798     libucrt:lcidtoname_downlevel.obj
 0002:000037a8       ??_C@_1M@FKFFEDDN@?$AAe?$AAt?$AA?9?$AAE?$AAE?$AA?$AA@ 00000001800107a8     libucrt:lcidtoname_downlevel.obj
 0002:000037b8       ??_C@_1M@KGKKAACI@?$AAl?$AAv?$AA?9?$AAL?$AAV?$AA?$AA@ 00000001800107b8     libucrt:lcidtoname_downlevel.obj
 0002:000037c8       ??_C@_1M@IFGBIJO@?$AAl?$AAt?$AA?9?$AAL?$AAT?$AA?$AA@ 00000001800107c8     libucrt:lcidtoname_downlevel.obj
 0002:000037d8       ??_C@_1M@FGEAHEDM@?$AAf?$AAa?$AA?9?$AAI?$AAR?$AA?$AA@ 00000001800107d8     libucrt:lcidtoname_downlevel.obj
 0002:000037e8       ??_C@_1M@KBMAIBFN@?$AAv?$AAi?$AA?9?$AAV?$AAN?$AA?$AA@ 00000001800107e8     libucrt:lcidtoname_downlevel.obj
 0002:000037f8       ??_C@_1M@GPCBKDJK@?$AAh?$AAy?$AA?9?$AAA?$AAM?$AA?$AA@ 00000001800107f8     libucrt:lcidtoname_downlevel.obj
 0002:00003808       ??_C@_1BG@BECMDDJB@?$AAa?$AAz?$AA?9?$AAA?$AAZ?$AA?9?$AAL?$AAa?$AAt?$AAn?$AA?$AA@ 0000000180010808     libucrt:lcidtoname_downlevel.obj
 0002:00003820       ??_C@_1M@MAOFCAEA@?$AAe?$AAu?$AA?9?$AAE?$AAS?$AA?$AA@ 0000000180010820     libucrt:lcidtoname_downlevel.obj
 0002:00003830       ??_C@_1M@IGHABKPI@?$AAm?$AAk?$AA?9?$AAM?$AAK?$AA?$AA@ 0000000180010830     libucrt:lcidtoname_downlevel.obj
 0002:00003840       ??_C@_1M@IAIGNEJG@?$AAt?$AAn?$AA?9?$AAZ?$AAA?$AA?$AA@ 0000000180010840     libucrt:lcidtoname_downlevel.obj
 0002:00003850       ??_C@_1M@IIJCOJFA@?$AAx?$AAh?$AA?9?$AAZ?$AAA?$AA?$AA@ 0000000180010850     libucrt:lcidtoname_downlevel.obj
 0002:00003860       ??_C@_1M@LGPJHNJH@?$AAz?$AAu?$AA?9?$AAZ?$AAA?$AA?$AA@ 0000000180010860     libucrt:lcidtoname_downlevel.obj
 0002:00003870       ??_C@_1M@HOKAOIO@?$AAa?$AAf?$AA?9?$AAZ?$AAA?$AA?$AA@ 0000000180010870     libucrt:lcidtoname_downlevel.obj
 0002:00003880       ??_C@_1M@DPCLHLIE@?$AAk?$AAa?$AA?9?$AAG?$AAE?$AA?$AA@ 0000000180010880     libucrt:lcidtoname_downlevel.obj
 0002:00003890       ??_C@_1M@BLKMHJBI@?$AAf?$AAo?$AA?9?$AAF?$AAO?$AA?$AA@ 0000000180010890     libucrt:lcidtoname_downlevel.obj
 0002:000038a0       ??_C@_1M@LGGJAPPB@?$AAh?$AAi?$AA?9?$AAI?$AAN?$AA?$AA@ 00000001800108a0     libucrt:lcidtoname_downlevel.obj
 0002:000038b0       ??_C@_1M@FIKPIHFE@?$AAm?$AAt?$AA?9?$AAM?$AAT?$AA?$AA@ 00000001800108b0     libucrt:lcidtoname_downlevel.obj
 0002:000038c0       ??_C@_1M@HEGGPBFA@?$AAs?$AAe?$AA?9?$AAN?$AAO?$AA?$AA@ 00000001800108c0     libucrt:lcidtoname_downlevel.obj
 0002:000038d0       ??_C@_1M@EIBJEEPA@?$AAm?$AAs?$AA?9?$AAM?$AAY?$AA?$AA@ 00000001800108d0     libucrt:lcidtoname_downlevel.obj
 0002:000038e0       ??_C@_1M@FHLBGMPP@?$AAk?$AAk?$AA?9?$AAK?$AAZ?$AA?$AA@ 00000001800108e0     libucrt:lcidtoname_downlevel.obj
 0002:000038f0       ??_C@_1M@NGJJLCGI@?$AAk?$AAy?$AA?9?$AAK?$AAG?$AA?$AA@ 00000001800108f0     libucrt:lcidtoname_downlevel.obj
 0002:00003900       ??_C@_1M@GIENNBFC@?$AAs?$AAw?$AA?9?$AAK?$AAE?$AA?$AA@ 0000000180010900     libucrt:lcidtoname_downlevel.obj
 0002:00003910       ??_C@_1BG@NDGMJIMJ@?$AAu?$AAz?$AA?9?$AAU?$AAZ?$AA?9?$AAL?$AAa?$AAt?$AAn?$AA?$AA@ 0000000180010910     libucrt:lcidtoname_downlevel.obj
 0002:00003928       ??_C@_1M@IDCCIHBC@?$AAt?$AAt?$AA?9?$AAR?$AAU?$AA?$AA@ 0000000180010928     libucrt:lcidtoname_downlevel.obj
 0002:00003938       ??_C@_1M@LOICPMOJ@?$AAb?$AAn?$AA?9?$AAI?$AAN?$AA?$AA@ 0000000180010938     libucrt:lcidtoname_downlevel.obj
 0002:00003948       ??_C@_1M@KPKKNEAH@?$AAp?$AAa?$AA?9?$AAI?$AAN?$AA?$AA@ 0000000180010948     libucrt:lcidtoname_downlevel.obj
 0002:00003958       ??_C@_1M@PJGPPBOG@?$AAg?$AAu?$AA?9?$AAI?$AAN?$AA?$AA@ 0000000180010958     libucrt:lcidtoname_downlevel.obj
 0002:00003968       ??_C@_1M@KMKMOPHI@?$AAt?$AAa?$AA?9?$AAI?$AAN?$AA?$AA@ 0000000180010968     libucrt:lcidtoname_downlevel.obj
 0002:00003978       ??_C@_1M@KFEHEPAC@?$AAt?$AAe?$AA?9?$AAI?$AAN?$AA?$AA@ 0000000180010978     libucrt:lcidtoname_downlevel.obj
 0002:00003988       ??_C@_1M@CDCLMGHI@?$AAk?$AAn?$AA?9?$AAI?$AAN?$AA?$AA@ 0000000180010988     libucrt:lcidtoname_downlevel.obj
 0002:00003998       ??_C@_1M@MIODLDKF@?$AAm?$AAl?$AA?9?$AAI?$AAN?$AA?$AA@ 0000000180010998     libucrt:lcidtoname_downlevel.obj
 0002:000039a8       ??_C@_1M@PBIEACPO@?$AAm?$AAr?$AA?9?$AAI?$AAN?$AA?$AA@ 00000001800109a8     libucrt:lcidtoname_downlevel.obj
 0002:000039b8       ??_C@_1M@NIDEAGPH@?$AAs?$AAa?$AA?9?$AAI?$AAN?$AA?$AA@ 00000001800109b8     libucrt:lcidtoname_downlevel.obj
 0002:000039c8       ??_C@_1M@FHIHCBIO@?$AAm?$AAn?$AA?9?$AAM?$AAN?$AA?$AA@ 00000001800109c8     libucrt:lcidtoname_downlevel.obj
 0002:000039d8       ??_C@_1M@JAIJPENP@?$AAc?$AAy?$AA?9?$AAG?$AAB?$AA?$AA@ 00000001800109d8     libucrt:lcidtoname_downlevel.obj
 0002:000039e8       ??_C@_1M@PHGFBEPN@?$AAg?$AAl?$AA?9?$AAE?$AAS?$AA?$AA@ 00000001800109e8     libucrt:lcidtoname_downlevel.obj
 0002:000039f8       ??_C@_1O@KPIPDNCP@?$AAk?$AAo?$AAk?$AA?9?$AAI?$AAN?$AA?$AA@ 00000001800109f8     libucrt:lcidtoname_downlevel.obj
 0002:00003a08       ??_C@_1O@KNHJLDJA@?$AAs?$AAy?$AAr?$AA?9?$AAS?$AAY?$AA?$AA@ 0000000180010a08     libucrt:lcidtoname_downlevel.obj
 0002:00003a18       ??_C@_1O@MKEKBLAH@?$AAd?$AAi?$AAv?$AA?9?$AAM?$AAV?$AA?$AA@ 0000000180010a18     libucrt:lcidtoname_downlevel.obj
 0002:00003a28       ??_C@_1O@OHDCKDDF@?$AAq?$AAu?$AAz?$AA?9?$AAB?$AAO?$AA?$AA@ 0000000180010a28     libucrt:lcidtoname_downlevel.obj
 0002:00003a38       ??_C@_1M@LEPJNLFD@?$AAn?$AAs?$AA?9?$AAZ?$AAA?$AA?$AA@ 0000000180010a38     libucrt:lcidtoname_downlevel.obj
 0002:00003a48       ??_C@_1M@OMLEIIJB@?$AAm?$AAi?$AA?9?$AAN?$AAZ?$AA?$AA@ 0000000180010a48     libucrt:lcidtoname_downlevel.obj
 0002:00003a58       ??_C@_1M@PMPEAILG@?$AAa?$AAr?$AA?9?$AAI?$AAQ?$AA?$AA@ 0000000180010a58     libucrt:lcidtoname_downlevel.obj
 0002:00003a68       ??_C@_1M@CNKPNOEE@?$AAd?$AAe?$AA?9?$AAC?$AAH?$AA?$AA@ 0000000180010a68     libucrt:lcidtoname_downlevel.obj
 0002:00003a78       ??_C@_1M@LKMGMLKO@?$AAe?$AAn?$AA?9?$AAG?$AAB?$AA?$AA@ 0000000180010a78     libucrt:lcidtoname_downlevel.obj
 0002:00003a88       ??_C@_1M@PGKJFFGL@?$AAe?$AAs?$AA?9?$AAM?$AAX?$AA?$AA@ 0000000180010a88     libucrt:lcidtoname_downlevel.obj
 0002:00003a98       ??_C@_1M@DNNANBDC@?$AAf?$AAr?$AA?9?$AAB?$AAE?$AA?$AA@ 0000000180010a98     libucrt:lcidtoname_downlevel.obj
 0002:00003aa8       ??_C@_1M@HLGMDFHM@?$AAi?$AAt?$AA?9?$AAC?$AAH?$AA?$AA@ 0000000180010aa8     libucrt:lcidtoname_downlevel.obj
 0002:00003ab8       ??_C@_1M@CLLBGJH@?$AAn?$AAl?$AA?9?$AAB?$AAE?$AA?$AA@ 0000000180010ab8     libucrt:lcidtoname_downlevel.obj
 0002:00003ac8       ??_C@_1M@BODBOGLF@?$AAn?$AAn?$AA?9?$AAN?$AAO?$AA?$AA@ 0000000180010ac8     libucrt:lcidtoname_downlevel.obj
 0002:00003ad8       ??_C@_1M@HFFAHKAD@?$AAp?$AAt?$AA?9?$AAP?$AAT?$AA?$AA@ 0000000180010ad8     libucrt:lcidtoname_downlevel.obj
 0002:00003ae8       ??_C@_1BG@LNOAKHIE@?$AAs?$AAr?$AA?9?$AAS?$AAP?$AA?9?$AAL?$AAa?$AAt?$AAn?$AA?$AA@ 0000000180010ae8     libucrt:lcidtoname_downlevel.obj
 0002:00003b00       ??_C@_1M@HBMHBGAK@?$AAs?$AAv?$AA?9?$AAF?$AAI?$AA?$AA@ 0000000180010b00     libucrt:lcidtoname_downlevel.obj
 0002:00003b10       ??_C@_1BG@DGCJGJBE@?$AAa?$AAz?$AA?9?$AAA?$AAZ?$AA?9?$AAC?$AAy?$AAr?$AAl?$AA?$AA@ 0000000180010b10     libucrt:lcidtoname_downlevel.obj
 0002:00003b28       ??_C@_1M@KEJDAAHB@?$AAs?$AAe?$AA?9?$AAS?$AAE?$AA?$AA@ 0000000180010b28     libucrt:lcidtoname_downlevel.obj
 0002:00003b38       ??_C@_1M@HEIBJJAD@?$AAm?$AAs?$AA?9?$AAB?$AAN?$AA?$AA@ 0000000180010b38     libucrt:lcidtoname_downlevel.obj
 0002:00003b48       ??_C@_1BG@PBGJMCEM@?$AAu?$AAz?$AA?9?$AAU?$AAZ?$AA?9?$AAC?$AAy?$AAr?$AAl?$AA?$AA@ 0000000180010b48     libucrt:lcidtoname_downlevel.obj
 0002:00003b60       ??_C@_1O@LAOBCMDF@?$AAq?$AAu?$AAz?$AA?9?$AAE?$AAC?$AA?$AA@ 0000000180010b60     libucrt:lcidtoname_downlevel.obj
 0002:00003b70       ??_C@_1M@POEEMAIO@?$AAa?$AAr?$AA?9?$AAE?$AAG?$AA?$AA@ 0000000180010b70     libucrt:lcidtoname_downlevel.obj
 0002:00003b80       ??_C@_1M@EFAKDEDL@?$AAz?$AAh?$AA?9?$AAH?$AAK?$AA?$AA@ 0000000180010b80     libucrt:lcidtoname_downlevel.obj
 0002:00003b90       ??_C@_1M@HKKIJHGI@?$AAd?$AAe?$AA?9?$AAA?$AAT?$AA?$AA@ 0000000180010b90     libucrt:lcidtoname_downlevel.obj
 0002:00003ba0       ??_C@_1M@KBFBEHJF@?$AAe?$AAn?$AA?9?$AAA?$AAU?$AA?$AA@ 0000000180010ba0     libucrt:lcidtoname_downlevel.obj
 0002:00003bb0       ??_C@_1M@MNPLFAAH@?$AAe?$AAs?$AA?9?$AAE?$AAS?$AA?$AA@ 0000000180010bb0     libucrt:lcidtoname_downlevel.obj
 0002:00003bc0       ??_C@_1M@HJOOJFMA@?$AAf?$AAr?$AA?9?$AAC?$AAA?$AA?$AA@ 0000000180010bc0     libucrt:lcidtoname_downlevel.obj
 0002:00003bd0       ??_C@_1BG@JPOFPNAB@?$AAs?$AAr?$AA?9?$AAS?$AAP?$AA?9?$AAC?$AAy?$AAr?$AAl?$AA?$AA@ 0000000180010bd0     libucrt:lcidtoname_downlevel.obj
 0002:00003be8       ??_C@_1M@LNFOCMOB@?$AAs?$AAe?$AA?9?$AAF?$AAI?$AA?$AA@ 0000000180010be8     libucrt:lcidtoname_downlevel.obj
 0002:00003bf8       ??_C@_1O@MGJBOAMB@?$AAq?$AAu?$AAz?$AA?9?$AAP?$AAE?$AA?$AA@ 0000000180010bf8     libucrt:lcidtoname_downlevel.obj
 0002:00003c08       ??_C@_1M@GJINLBOK@?$AAa?$AAr?$AA?9?$AAL?$AAY?$AA?$AA@ 0000000180010c08     libucrt:lcidtoname_downlevel.obj
 0002:00003c18       ??_C@_1M@GGMNHJNL@?$AAz?$AAh?$AA?9?$AAS?$AAG?$AA?$AA@ 0000000180010c18     libucrt:lcidtoname_downlevel.obj
 0002:00003c28       ??_C@_1M@HOIKODND@?$AAd?$AAe?$AA?9?$AAL?$AAU?$AA?$AA@ 0000000180010c28     libucrt:lcidtoname_downlevel.obj
 0002:00003c38       ??_C@_1M@DDOCCGFG@?$AAe?$AAn?$AA?9?$AAC?$AAA?$AA?$AA@ 0000000180010c38     libucrt:lcidtoname_downlevel.obj
 0002:00003c48       ??_C@_1M@BNOEMJLF@?$AAe?$AAs?$AA?9?$AAG?$AAT?$AA?$AA@ 0000000180010c48     libucrt:lcidtoname_downlevel.obj
 0002:00003c58       ??_C@_1M@EOGNKEK@?$AAf?$AAr?$AA?9?$AAC?$AAH?$AA?$AA@ 0000000180010c58     libucrt:lcidtoname_downlevel.obj
 0002:00003c68       ??_C@_1M@FLIDJFHL@?$AAh?$AAr?$AA?9?$AAB?$AAA?$AA?$AA@ 0000000180010c68     libucrt:lcidtoname_downlevel.obj
 0002:00003c78       ??_C@_1O@FMCELNAJ@?$AAs?$AAm?$AAj?$AA?9?$AAN?$AAO?$AA?$AA@ 0000000180010c78     libucrt:lcidtoname_downlevel.obj
 0002:00003c88       ??_C@_1M@JHGLJMGJ@?$AAa?$AAr?$AA?9?$AAD?$AAZ?$AA?$AA@ 0000000180010c88     libucrt:lcidtoname_downlevel.obj
 0002:00003c98       ??_C@_1M@JKKFDCNP@?$AAz?$AAh?$AA?9?$AAM?$AAO?$AA?$AA@ 0000000180010c98     libucrt:lcidtoname_downlevel.obj
 0002:00003ca8       ??_C@_1M@GEEFALPE@?$AAd?$AAe?$AA?9?$AAL?$AAI?$AA?$AA@ 0000000180010ca8     libucrt:lcidtoname_downlevel.obj
 0002:00003cb8       ??_C@_1M@IGEOFBG@?$AAe?$AAn?$AA?9?$AAN?$AAZ?$AA?$AA@ 0000000180010cb8     libucrt:lcidtoname_downlevel.obj
 0002:00003cc8       ??_C@_1M@KDBONEHP@?$AAe?$AAs?$AA?9?$AAC?$AAR?$AA?$AA@ 0000000180010cc8     libucrt:lcidtoname_downlevel.obj
 0002:00003cd8       ??_C@_1M@FHMDOHNN@?$AAf?$AAr?$AA?9?$AAL?$AAU?$AA?$AA@ 0000000180010cd8     libucrt:lcidtoname_downlevel.obj
 0002:00003ce8       ??_C@_1BG@NFKKMAFG@?$AAb?$AAs?$AA?9?$AAB?$AAA?$AA?9?$AAL?$AAa?$AAt?$AAn?$AA?$AA@ 0000000180010ce8     libucrt:lcidtoname_downlevel.obj
 0002:00003d00       ??_C@_1O@IMNBEMCI@?$AAs?$AAm?$AAj?$AA?9?$AAS?$AAE?$AA?$AA@ 0000000180010d00     libucrt:lcidtoname_downlevel.obj
 0002:00003d10       ??_C@_1M@DHHMBNDP@?$AAa?$AAr?$AA?9?$AAM?$AAA?$AA?$AA@ 0000000180010d10     libucrt:lcidtoname_downlevel.obj
 0002:00003d20       ??_C@_1M@BNBLJCGH@?$AAe?$AAn?$AA?9?$AAI?$AAE?$AA?$AA@ 0000000180010d20     libucrt:lcidtoname_downlevel.obj
 0002:00003d30       ??_C@_1M@GEPAFMDL@?$AAe?$AAs?$AA?9?$AAP?$AAA?$AA?$AA@ 0000000180010d30     libucrt:lcidtoname_downlevel.obj
 0002:00003d40       ??_C@_1M@OJONDMDL@?$AAf?$AAr?$AA?9?$AAM?$AAC?$AA?$AA@ 0000000180010d40     libucrt:lcidtoname_downlevel.obj
 0002:00003d50       ??_C@_1BG@OBCNFJB@?$AAs?$AAr?$AA?9?$AAB?$AAA?$AA?9?$AAL?$AAa?$AAt?$AAn?$AA?$AA@ 0000000180010d50     libucrt:lcidtoname_downlevel.obj
 0002:00003d68       ??_C@_1O@KEMEEGPO@?$AAs?$AAm?$AAa?$AA?9?$AAN?$AAO?$AA?$AA@ 0000000180010d68     libucrt:lcidtoname_downlevel.obj
 0002:00003d78       ??_C@_1M@ELMGFODK@?$AAa?$AAr?$AA?9?$AAT?$AAN?$AA?$AA@ 0000000180010d78     libucrt:lcidtoname_downlevel.obj
 0002:00003d88       ??_C@_1M@BHDLHFAF@?$AAe?$AAn?$AA?9?$AAZ?$AAA?$AA?$AA@ 0000000180010d88     libucrt:lcidtoname_downlevel.obj
 0002:00003d98       ??_C@_1M@BMGIGLIF@?$AAe?$AAs?$AA?9?$AAD?$AAO?$AA?$AA@ 0000000180010d98     libucrt:lcidtoname_downlevel.obj
 0002:00003da8       ??_C@_1BG@CMBHIPBE@?$AAs?$AAr?$AA?9?$AAB?$AAA?$AA?9?$AAC?$AAy?$AAr?$AAl?$AA?$AA@ 0000000180010da8     libucrt:lcidtoname_downlevel.obj
 0002:00003dc0       ??_C@_1O@HEDBLHNP@?$AAs?$AAm?$AAa?$AA?9?$AAS?$AAE?$AA?$AA@ 0000000180010dc0     libucrt:lcidtoname_downlevel.obj
 0002:00003dd0       ??_C@_1M@DAGCADIM@?$AAa?$AAr?$AA?9?$AAO?$AAM?$AA?$AA@ 0000000180010dd0     libucrt:lcidtoname_downlevel.obj
 0002:00003de0       ??_C@_1M@FODLMICG@?$AAe?$AAn?$AA?9?$AAJ?$AAM?$AA?$AA@ 0000000180010de0     libucrt:lcidtoname_downlevel.obj
 0002:00003df0       ??_C@_1M@DNMLCIHB@?$AAe?$AAs?$AA?9?$AAV?$AAE?$AA?$AA@ 0000000180010df0     libucrt:lcidtoname_downlevel.obj
 0002:00003e00       ??_C@_1O@EOKHMKJK@?$AAs?$AAm?$AAs?$AA?9?$AAF?$AAI?$AA?$AA@ 0000000180010e00     libucrt:lcidtoname_downlevel.obj
 0002:00003e10       ??_C@_1M@CAFJMKOF@?$AAa?$AAr?$AA?9?$AAY?$AAE?$AA?$AA@ 0000000180010e10     libucrt:lcidtoname_downlevel.obj
 0002:00003e20       ??_C@_1M@CBFHIJLI@?$AAe?$AAn?$AA?9?$AAC?$AAB?$AA?$AA@ 0000000180010e20     libucrt:lcidtoname_downlevel.obj
 0002:00003e30       ??_C@_1M@BGNFLDN@?$AAe?$AAs?$AA?9?$AAC?$AAO?$AA?$AA@ 0000000180010e30     libucrt:lcidtoname_downlevel.obj
 0002:00003e40       ??_C@_1O@JMPHMAMC@?$AAs?$AAm?$AAn?$AA?9?$AAF?$AAI?$AA?$AA@ 0000000180010e40     libucrt:lcidtoname_downlevel.obj
 0002:00003e50       ??_C@_1M@JLANABKE@?$AAa?$AAr?$AA?9?$AAS?$AAY?$AA?$AA@ 0000000180010e50     libucrt:lcidtoname_downlevel.obj
 0002:00003e60       ??_C@_1M@HPKGCFGN@?$AAe?$AAn?$AA?9?$AAB?$AAZ?$AA?$AA@ 0000000180010e60     libucrt:lcidtoname_downlevel.obj
 0002:00003e70       ??_C@_1M@OLJCMLGM@?$AAe?$AAs?$AA?9?$AAP?$AAE?$AA?$AA@ 0000000180010e70     libucrt:lcidtoname_downlevel.obj
 0002:00003e80       ??_C@_1M@MKKGFKLE@?$AAa?$AAr?$AA?9?$AAJ?$AAO?$AA?$AA@ 0000000180010e80     libucrt:lcidtoname_downlevel.obj
 0002:00003e90       ??_C@_1M@EKPGLDNI@?$AAe?$AAn?$AA?9?$AAT?$AAT?$AA?$AA@ 0000000180010e90     libucrt:lcidtoname_downlevel.obj
 0002:00003ea0       ??_C@_1M@OONGHFHE@?$AAe?$AAs?$AA?9?$AAA?$AAR?$AA?$AA@ 0000000180010ea0     libucrt:lcidtoname_downlevel.obj
 0002:00003eb0       ??_C@_1M@OOJFGBHE@?$AAa?$AAr?$AA?9?$AAL?$AAB?$AA?$AA@ 0000000180010eb0     libucrt:lcidtoname_downlevel.obj
 0002:00003ec0       ??_C@_1M@GCEJHNEG@?$AAe?$AAn?$AA?9?$AAZ?$AAW?$AA?$AA@ 0000000180010ec0     libucrt:lcidtoname_downlevel.obj
 0002:00003ed0       ??_C@_1M@JNOCAHJI@?$AAe?$AAs?$AA?9?$AAE?$AAC?$AA?$AA@ 0000000180010ed0     libucrt:lcidtoname_downlevel.obj
 0002:00003ee0       ??_C@_1M@JEFHPGGB@?$AAa?$AAr?$AA?9?$AAK?$AAW?$AA?$AA@ 0000000180010ee0     libucrt:lcidtoname_downlevel.obj
 0002:00003ef0       ??_C@_1M@MLKIBJOJ@?$AAe?$AAn?$AA?9?$AAP?$AAH?$AA?$AA@ 0000000180010ef0     libucrt:lcidtoname_downlevel.obj
 0002:00003f00       ??_C@_1M@BDNIPEND@?$AAe?$AAs?$AA?9?$AAC?$AAL?$AA?$AA@ 0000000180010f00     libucrt:lcidtoname_downlevel.obj
 0002:00003f10       ??_C@_1M@MPNMEKBD@?$AAa?$AAr?$AA?9?$AAA?$AAE?$AA?$AA@ 0000000180010f10     libucrt:lcidtoname_downlevel.obj
 0002:00003f20       ??_C@_1M@KBJALCPI@?$AAe?$AAs?$AA?9?$AAU?$AAY?$AA?$AA@ 0000000180010f20     libucrt:lcidtoname_downlevel.obj
 0002:00003f30       ??_C@_1M@LLCCOAGA@?$AAa?$AAr?$AA?9?$AAB?$AAH?$AA?$AA@ 0000000180010f30     libucrt:lcidtoname_downlevel.obj
 0002:00003f40       ??_C@_1M@PBFNCDEL@?$AAe?$AAs?$AA?9?$AAP?$AAY?$AA?$AA@ 0000000180010f40     libucrt:lcidtoname_downlevel.obj
 0002:00003f50       ??_C@_1M@EDGINPNP@?$AAa?$AAr?$AA?9?$AAQ?$AAA?$AA?$AA@ 0000000180010f50     libucrt:lcidtoname_downlevel.obj
 0002:00003f60       ??_C@_1M@MKDBIIJI@?$AAe?$AAs?$AA?9?$AAB?$AAO?$AA?$AA@ 0000000180010f60     libucrt:lcidtoname_downlevel.obj
 0002:00003f70       ??_C@_1M@CPKKEBLD@?$AAe?$AAs?$AA?9?$AAS?$AAV?$AA?$AA@ 0000000180010f70     libucrt:lcidtoname_downlevel.obj
 0002:00003f80       ??_C@_1M@NDBGMMJL@?$AAe?$AAs?$AA?9?$AAH?$AAN?$AA?$AA@ 0000000180010f80     libucrt:lcidtoname_downlevel.obj
 0002:00003f90       ??_C@_1M@JIJIBHDP@?$AAe?$AAs?$AA?9?$AAN?$AAI?$AA?$AA@ 0000000180010f90     libucrt:lcidtoname_downlevel.obj
 0002:00003fa0       ??_C@_1M@CGFMKEEK@?$AAe?$AAs?$AA?9?$AAP?$AAR?$AA?$AA@ 0000000180010fa0     libucrt:lcidtoname_downlevel.obj
 0002:00003fb0       ??_C@_1O@ICJHKIIK@?$AAz?$AAh?$AA?9?$AAC?$AAH?$AAT?$AA?$AA@ 0000000180010fb0     libucrt:lcidtoname_downlevel.obj
 0002:00003fc0       ??_C@_15CLNEJCE@?$AAs?$AAr?$AA?$AA@ 0000000180010fc0     libucrt:lcidtoname_downlevel.obj
 0002:00004e10       ??_C@_1M@KAHEKEIG@?$AAa?$AAf?$AA?9?$AAz?$AAa?$AA?$AA@ 0000000180011e10     libucrt:lcidtoname_downlevel.obj
 0002:00004e20       ??_C@_1M@GIECOABL@?$AAa?$AAr?$AA?9?$AAa?$AAe?$AA?$AA@ 0000000180011e20     libucrt:lcidtoname_downlevel.obj
 0002:00004e30       ??_C@_1M@BMLMEKGI@?$AAa?$AAr?$AA?9?$AAb?$AAh?$AA?$AA@ 0000000180011e30     libucrt:lcidtoname_downlevel.obj
 0002:00004e40       ??_C@_1M@DAPFDGGB@?$AAa?$AAr?$AA?9?$AAd?$AAz?$AA?$AA@ 0000000180011e40     libucrt:lcidtoname_downlevel.obj
 0002:00004e50       ??_C@_1M@FJNKGKIG@?$AAa?$AAr?$AA?9?$AAe?$AAg?$AA?$AA@ 0000000180011e50     libucrt:lcidtoname_downlevel.obj
 0002:00004e60       ??_C@_1M@FLGKKCLO@?$AAa?$AAr?$AA?9?$AAi?$AAq?$AA?$AA@ 0000000180011e60     libucrt:lcidtoname_downlevel.obj
 0002:00004e70       ??_C@_1M@GNDIPALM@?$AAa?$AAr?$AA?9?$AAj?$AAo?$AA?$AA@ 0000000180011e70     libucrt:lcidtoname_downlevel.obj
 0002:00004e80       ??_C@_1M@DDMJFMGJ@?$AAa?$AAr?$AA?9?$AAk?$AAw?$AA?$AA@ 0000000180011e80     libucrt:lcidtoname_downlevel.obj
 0002:00004e90       ??_C@_1M@EJALMLHM@?$AAa?$AAr?$AA?9?$AAl?$AAb?$AA?$AA@ 0000000180011e90     libucrt:lcidtoname_downlevel.obj
 0002:00004ea0       ??_C@_1M@MOBDBLOC@?$AAa?$AAr?$AA?9?$AAl?$AAy?$AA?$AA@ 0000000180011ea0     libucrt:lcidtoname_downlevel.obj
 0002:00004eb0       ??_C@_1M@JAOCLHDH@?$AAa?$AAr?$AA?9?$AAm?$AAa?$AA?$AA@ 0000000180011eb0     libucrt:lcidtoname_downlevel.obj
 0002:00004ec0       ??_C@_1M@JHPMKJIE@?$AAa?$AAr?$AA?9?$AAo?$AAm?$AA?$AA@ 0000000180011ec0     libucrt:lcidtoname_downlevel.obj
 0002:00004ed0       ??_C@_1M@OEPGHFNH@?$AAa?$AAr?$AA?9?$AAq?$AAa?$AA?$AA@ 0000000180011ed0     libucrt:lcidtoname_downlevel.obj
 0002:00004ee0       ??_C@_1M@KJDONENM@?$AAa?$AAr?$AA?9?$AAs?$AAa?$AA?$AA@ 0000000180011ee0     libucrt:lcidtoname_downlevel.obj
 0002:00004ef0       ??_C@_1M@DMJDKLKM@?$AAa?$AAr?$AA?9?$AAs?$AAy?$AA?$AA@ 0000000180011ef0     libucrt:lcidtoname_downlevel.obj
 0002:00004f00       ??_C@_1M@OMFIPEDC@?$AAa?$AAr?$AA?9?$AAt?$AAn?$AA?$AA@ 0000000180011f00     libucrt:lcidtoname_downlevel.obj
 0002:00004f10       ??_C@_1M@IHMHGAON@?$AAa?$AAr?$AA?9?$AAy?$AAe?$AA?$AA@ 0000000180011f10     libucrt:lcidtoname_downlevel.obj
 0002:00004f20       ??_C@_1BG@KDCPGJGB@?$AAa?$AAz?$AA?9?$AAa?$AAz?$AA?9?$AAc?$AAy?$AAr?$AAl?$AA?$AA@ 0000000180011f20     libucrt:lcidtoname_downlevel.obj
 0002:00004f38       ??_C@_1BG@IBCKDDOE@?$AAa?$AAz?$AA?9?$AAa?$AAz?$AA?9?$AAl?$AAa?$AAt?$AAn?$AA?$AA@ 0000000180011f38     libucrt:lcidtoname_downlevel.obj
 0002:00004f50       ??_C@_1M@EGPFDCPD@?$AAb?$AAe?$AA?9?$AAb?$AAy?$AA?$AA@ 0000000180011f50     libucrt:lcidtoname_downlevel.obj
 0002:00004f60       ??_C@_1M@PCMGMCGC@?$AAb?$AAg?$AA?9?$AAb?$AAg?$AA?$AA@ 0000000180011f60     libucrt:lcidtoname_downlevel.obj
 0002:00004f70       ??_C@_1M@BJBMFGOB@?$AAb?$AAn?$AA?9?$AAi?$AAn?$AA?$AA@ 0000000180011f70     libucrt:lcidtoname_downlevel.obj
 0002:00004f80       ??_C@_1BG@EAKMMACD@?$AAb?$AAs?$AA?9?$AAb?$AAa?$AA?9?$AAl?$AAa?$AAt?$AAn?$AA?$AA@ 0000000180011f80     libucrt:lcidtoname_downlevel.obj
 0002:00004f98       ??_C@_1M@KGADAODK@?$AAc?$AAa?$AA?9?$AAe?$AAs?$AA?$AA@ 0000000180011f98     libucrt:lcidtoname_downlevel.obj
 0002:00004fa8       ??_C@_1M@COAJPDHI@?$AAc?$AAs?$AA?9?$AAc?$AAz?$AA?$AA@ 0000000180011fa8     libucrt:lcidtoname_downlevel.obj
 0002:00004fb8       ??_C@_1M@DHBHFONH@?$AAc?$AAy?$AA?9?$AAg?$AAb?$AA?$AA@ 0000000180011fb8     libucrt:lcidtoname_downlevel.obj
 0002:00004fc8       ??_C@_1M@IMGKELGA@?$AAd?$AAa?$AA?9?$AAd?$AAk?$AA?$AA@ 0000000180011fc8     libucrt:lcidtoname_downlevel.obj
 0002:00004fd8       ??_C@_1M@NNDGDNGA@?$AAd?$AAe?$AA?9?$AAa?$AAt?$AA?$AA@ 0000000180011fd8     libucrt:lcidtoname_downlevel.obj
 0002:00004fe8       ??_C@_1M@IKDBHEEM@?$AAd?$AAe?$AA?9?$AAc?$AAh?$AA?$AA@ 0000000180011fe8     libucrt:lcidtoname_downlevel.obj
 0002:00004ff8       ??_C@_1M@GFFOJMCJ@?$AAd?$AAe?$AA?9?$AAd?$AAe?$AA?$AA@ 0000000180011ff8     libucrt:lcidtoname_downlevel.obj
 0002:00005008       ??_C@_1M@MDNLKBPM@?$AAd?$AAe?$AA?9?$AAl?$AAi?$AA?$AA@ 0000000180012008     libucrt:lcidtoname_downlevel.obj
 0002:00005018       ??_C@_1M@NJBEEJNL@?$AAd?$AAe?$AA?9?$AAl?$AAu?$AA?$AA@ 0000000180012018     libucrt:lcidtoname_downlevel.obj
 0002:00005028       ??_C@_1O@GNNELBAP@?$AAd?$AAi?$AAv?$AA?9?$AAm?$AAv?$AA?$AA@ 0000000180012028     libucrt:lcidtoname_downlevel.obj
 0002:00005038       ??_C@_1M@EJLEOGAE@?$AAe?$AAl?$AA?9?$AAg?$AAr?$AA?$AA@ 0000000180012038     libucrt:lcidtoname_downlevel.obj
 0002:00005048       ??_C@_1M@GMPONJN@?$AAe?$AAn?$AA?9?$AAa?$AAu?$AA?$AA@ 0000000180012048     libucrt:lcidtoname_downlevel.obj
 0002:00005058       ??_C@_1M@NIDIIPGF@?$AAe?$AAn?$AA?9?$AAb?$AAz?$AA?$AA@ 0000000180012058     libucrt:lcidtoname_downlevel.obj
 0002:00005068       ??_C@_1M@JEHMIMFO@?$AAe?$AAn?$AA?9?$AAc?$AAa?$AA?$AA@ 0000000180012068     libucrt:lcidtoname_downlevel.obj
 0002:00005078       ??_C@_1M@IGMJCDLA@?$AAe?$AAn?$AA?9?$AAc?$AAb?$AA?$AA@ 0000000180012078     libucrt:lcidtoname_downlevel.obj
 0002:00005088       ??_C@_1M@BNFIGBKG@?$AAe?$AAn?$AA?9?$AAg?$AAb?$AA?$AA@ 0000000180012088     libucrt:lcidtoname_downlevel.obj
 0002:00005098       ??_C@_1M@LKIFDIGP@?$AAe?$AAn?$AA?9?$AAi?$AAe?$AA?$AA@ 0000000180012098     libucrt:lcidtoname_downlevel.obj
 0002:000050a8       ??_C@_1M@PJKFGCCO@?$AAe?$AAn?$AA?9?$AAj?$AAm?$AA?$AA@ 00000001800120a8     libucrt:lcidtoname_downlevel.obj
 0002:000050b8       ??_C@_1M@KPPKEPBO@?$AAe?$AAn?$AA?9?$AAn?$AAz?$AA?$AA@ 00000001800120b8     libucrt:lcidtoname_downlevel.obj
 0002:000050c8       ??_C@_1M@GMDGLDOB@?$AAe?$AAn?$AA?9?$AAp?$AAh?$AA?$AA@ 00000001800120c8     libucrt:lcidtoname_downlevel.obj
 0002:000050d8       ??_C@_1M@ONGIBJNA@?$AAe?$AAn?$AA?9?$AAt?$AAt?$AA?$AA@ 00000001800120d8     libucrt:lcidtoname_downlevel.obj
 0002:000050e8       ??_C@_1M@LLODPCMM@?$AAe?$AAn?$AA?9?$AAu?$AAs?$AA?$AA@ 00000001800120e8     libucrt:lcidtoname_downlevel.obj
 0002:000050f8       ??_C@_1M@LAKFNPAN@?$AAe?$AAn?$AA?9?$AAz?$AAa?$AA?$AA@ 00000001800120f8     libucrt:lcidtoname_downlevel.obj
 0002:00005108       ??_C@_1M@MFNHNHEO@?$AAe?$AAn?$AA?9?$AAz?$AAw?$AA?$AA@ 0000000180012108     libucrt:lcidtoname_downlevel.obj
 0002:00005118       ??_C@_1M@EJEINPHM@?$AAe?$AAs?$AA?9?$AAa?$AAr?$AA?$AA@ 0000000180012118     libucrt:lcidtoname_downlevel.obj
 0002:00005128       ??_C@_1M@GNKPCCJA@?$AAe?$AAs?$AA?9?$AAb?$AAo?$AA?$AA@ 0000000180012128     libucrt:lcidtoname_downlevel.obj
 0002:00005138       ??_C@_1M@LEEGFONL@?$AAe?$AAs?$AA?9?$AAc?$AAl?$AA?$AA@ 0000000180012138     libucrt:lcidtoname_downlevel.obj
 0002:00005148       ??_C@_1M@KGPDPBDF@?$AAe?$AAs?$AA?9?$AAc?$AAo?$AA?$AA@ 0000000180012148     libucrt:lcidtoname_downlevel.obj
 0002:00005158       ??_C@_1M@EIAHOHH@?$AAe?$AAs?$AA?9?$AAc?$AAr?$AA?$AA@ 0000000180012158     libucrt:lcidtoname_downlevel.obj
 0002:00005168       ??_C@_1M@LLPGMBIN@?$AAe?$AAs?$AA?9?$AAd?$AAo?$AA?$AA@ 0000000180012168     libucrt:lcidtoname_downlevel.obj
 0002:00005178       ??_C@_1M@DKHMKNJA@?$AAe?$AAs?$AA?9?$AAe?$AAc?$AA?$AA@ 0000000180012178     libucrt:lcidtoname_downlevel.obj
 0002:00005188       ??_C@_1M@GKGFPKAP@?$AAe?$AAs?$AA?9?$AAe?$AAs?$AA?$AA@ 0000000180012188     libucrt:lcidtoname_downlevel.obj
 0002:00005198       ??_C@_1M@LKHKGDLN@?$AAe?$AAs?$AA?9?$AAg?$AAt?$AA?$AA@ 0000000180012198     libucrt:lcidtoname_downlevel.obj
 0002:000051a8       ??_C@_1M@HEIIGGJD@?$AAe?$AAs?$AA?9?$AAh?$AAn?$AA?$AA@ 00000001800121a8     libucrt:lcidtoname_downlevel.obj
 0002:000051b8       ??_C@_1M@FBDHPPGD@?$AAe?$AAs?$AA?9?$AAm?$AAx?$AA?$AA@ 00000001800121b8     libucrt:lcidtoname_downlevel.obj
 0002:000051c8       ??_C@_1M@DPAGLNDH@?$AAe?$AAs?$AA?9?$AAn?$AAi?$AA?$AA@ 00000001800121c8     libucrt:lcidtoname_downlevel.obj
 0002:000051d8       ??_C@_1M@MDGOPGDD@?$AAe?$AAs?$AA?9?$AAp?$AAa?$AA?$AA@ 00000001800121d8     libucrt:lcidtoname_downlevel.obj
 0002:000051e8       ??_C@_1M@EMAMGBGE@?$AAe?$AAs?$AA?9?$AAp?$AAe?$AA?$AA@ 00000001800121e8     libucrt:lcidtoname_downlevel.obj
 0002:000051f8       ??_C@_1M@IBMCAOEC@?$AAe?$AAs?$AA?9?$AAp?$AAr?$AA?$AA@ 00000001800121f8     libucrt:lcidtoname_downlevel.obj
 0002:00005208       ??_C@_1M@FGMDIJED@?$AAe?$AAs?$AA?9?$AAp?$AAy?$AA?$AA@ 0000000180012208     libucrt:lcidtoname_downlevel.obj
 0002:00005218       ??_C@_1M@IIDEOLLL@?$AAe?$AAs?$AA?9?$AAs?$AAv?$AA?$AA@ 0000000180012218     libucrt:lcidtoname_downlevel.obj
 0002:00005228       ??_C@_1M@GAOBIPA@?$AAe?$AAs?$AA?9?$AAu?$AAy?$AA?$AA@ 0000000180012228     libucrt:lcidtoname_downlevel.obj
 0002:00005238       ??_C@_1M@JKFFICHJ@?$AAe?$AAs?$AA?9?$AAv?$AAe?$AA?$AA@ 0000000180012238     libucrt:lcidtoname_downlevel.obj
 0002:00005248       ??_C@_1M@PNMLOJDF@?$AAe?$AAt?$AA?9?$AAe?$AAe?$AA?$AA@ 0000000180012248     libucrt:lcidtoname_downlevel.obj
 0002:00005258       ??_C@_1M@GHHLIKEI@?$AAe?$AAu?$AA?9?$AAe?$AAs?$AA?$AA@ 0000000180012258     libucrt:lcidtoname_downlevel.obj
 0002:00005268       ??_C@_1M@PBNONODE@?$AAf?$AAa?$AA?9?$AAi?$AAr?$AA?$AA@ 0000000180012268     libucrt:lcidtoname_downlevel.obj
 0002:00005278       ??_C@_1M@JEEHPMIL@?$AAf?$AAi?$AA?9?$AAf?$AAi?$AA?$AA@ 0000000180012278     libucrt:lcidtoname_downlevel.obj
 0002:00005288       ??_C@_1M@LMDCNDBA@?$AAf?$AAo?$AA?9?$AAf?$AAo?$AA?$AA@ 0000000180012288     libucrt:lcidtoname_downlevel.obj
 0002:00005298       ??_C@_1M@JKEOHLDK@?$AAf?$AAr?$AA?9?$AAb?$AAe?$AA?$AA@ 0000000180012298     libucrt:lcidtoname_downlevel.obj
 0002:000052a8       ??_C@_1M@NOHADPMI@?$AAf?$AAr?$AA?9?$AAc?$AAa?$AA?$AA@ 00000001800122a8     libucrt:lcidtoname_downlevel.obj
 0002:000052b8       ??_C@_1M@KDHIHAEC@?$AAf?$AAr?$AA?9?$AAc?$AAh?$AA?$AA@ 00000001800122b8     libucrt:lcidtoname_downlevel.obj
 0002:000052c8       ??_C@_1M@MMBBFGAK@?$AAf?$AAr?$AA?9?$AAf?$AAr?$AA?$AA@ 00000001800122c8     libucrt:lcidtoname_downlevel.obj
 0002:000052d8       ??_C@_1M@PAFNENNF@?$AAf?$AAr?$AA?9?$AAl?$AAu?$AA?$AA@ 00000001800122d8     libucrt:lcidtoname_downlevel.obj
 0002:000052e8       ??_C@_1M@EOHDJGDD@?$AAf?$AAr?$AA?9?$AAm?$AAc?$AA?$AA@ 00000001800122e8     libucrt:lcidtoname_downlevel.obj
 0002:000052f8       ??_C@_1M@FAPLLOPF@?$AAg?$AAl?$AA?9?$AAe?$AAs?$AA?$AA@ 00000001800122f8     libucrt:lcidtoname_downlevel.obj
 0002:00005308       ??_C@_1M@FOPBFLOO@?$AAg?$AAu?$AA?9?$AAi?$AAn?$AA?$AA@ 0000000180012308     libucrt:lcidtoname_downlevel.obj
 0002:00005318       ??_C@_1M@KBMCINPM@?$AAh?$AAe?$AA?9?$AAi?$AAl?$AA?$AA@ 0000000180012318     libucrt:lcidtoname_downlevel.obj
 0002:00005328       ??_C@_1M@BBPHKFPJ@?$AAh?$AAi?$AA?9?$AAi?$AAn?$AA?$AA@ 0000000180012328     libucrt:lcidtoname_downlevel.obj
 0002:00005338       ??_C@_1M@PMBNDPHD@?$AAh?$AAr?$AA?9?$AAb?$AAa?$AA?$AA@ 0000000180012338     libucrt:lcidtoname_downlevel.obj
 0002:00005348       ??_C@_1M@BPCKOEGE@?$AAh?$AAr?$AA?9?$AAh?$AAr?$AA?$AA@ 0000000180012348     libucrt:lcidtoname_downlevel.obj
 0002:00005358       ??_C@_1M@GACBMHKE@?$AAh?$AAu?$AA?9?$AAh?$AAu?$AA?$AA@ 0000000180012358     libucrt:lcidtoname_downlevel.obj
 0002:00005368       ??_C@_1M@MILPAJJC@?$AAh?$AAy?$AA?9?$AAa?$AAm?$AA?$AA@ 0000000180012368     libucrt:lcidtoname_downlevel.obj
 0002:00005378       ??_C@_1M@BABBICEC@?$AAi?$AAd?$AA?9?$AAi?$AAd?$AA?$AA@ 0000000180012378     libucrt:lcidtoname_downlevel.obj
 0002:00005388       ??_C@_1M@BIKNHHPF@?$AAi?$AAs?$AA?9?$AAi?$AAs?$AA?$AA@ 0000000180012388     libucrt:lcidtoname_downlevel.obj
 0002:00005398       ??_C@_1M@NMPCJPHE@?$AAi?$AAt?$AA?9?$AAc?$AAh?$AA?$AA@ 0000000180012398     libucrt:lcidtoname_downlevel.obj
 0002:000053a8       ??_C@_1M@GHKGFEDF@?$AAi?$AAt?$AA?9?$AAi?$AAt?$AA?$AA@ 00000001800123a8     libucrt:lcidtoname_downlevel.obj
 0002:000053b8       ??_C@_1M@NIEJCJJA@?$AAj?$AAa?$AA?9?$AAj?$AAp?$AA?$AA@ 00000001800123b8     libucrt:lcidtoname_downlevel.obj
 0002:000053c8       ??_C@_1M@JILFNBIM@?$AAk?$AAa?$AA?9?$AAg?$AAe?$AA?$AA@ 00000001800123c8     libucrt:lcidtoname_downlevel.obj
 0002:000053d8       ??_C@_1M@PACPMGPH@?$AAk?$AAk?$AA?9?$AAk?$AAz?$AA?$AA@ 00000001800123d8     libucrt:lcidtoname_downlevel.obj
 0002:000053e8       ??_C@_1M@IELFGMHA@?$AAk?$AAn?$AA?9?$AAi?$AAn?$AA?$AA@ 00000001800123e8     libucrt:lcidtoname_downlevel.obj
 0002:000053f8       ??_C@_1O@IBBJHCH@?$AAk?$AAo?$AAk?$AA?9?$AAi?$AAn?$AA?$AA@ 00000001800123f8     libucrt:lcidtoname_downlevel.obj
 0002:00005408       ??_C@_1M@DMHAEOGC@?$AAk?$AAo?$AA?9?$AAk?$AAr?$AA?$AA@ 0000000180012408     libucrt:lcidtoname_downlevel.obj
 0002:00005418       ??_C@_1M@HBAHBIGA@?$AAk?$AAy?$AA?9?$AAk?$AAg?$AA?$AA@ 0000000180012418     libucrt:lcidtoname_downlevel.obj
 0002:00005428       ??_C@_1M@KPMILCJG@?$AAl?$AAt?$AA?9?$AAl?$AAt?$AA?$AA@ 0000000180012428     libucrt:lcidtoname_downlevel.obj
 0002:00005438       ??_C@_1M@BDEKKCA@?$AAl?$AAv?$AA?9?$AAl?$AAv?$AA?$AA@ 0000000180012438     libucrt:lcidtoname_downlevel.obj
 0002:00005448       ??_C@_1M@ELCKCCJJ@?$AAm?$AAi?$AA?9?$AAn?$AAz?$AA?$AA@ 0000000180012448     libucrt:lcidtoname_downlevel.obj
 0002:00005458       ??_C@_1M@CBOOLAPA@?$AAm?$AAk?$AA?9?$AAm?$AAk?$AA?$AA@ 0000000180012458     libucrt:lcidtoname_downlevel.obj
 0002:00005468       ??_C@_1M@GPHNBJKN@?$AAm?$AAl?$AA?9?$AAi?$AAn?$AA?$AA@ 0000000180012468     libucrt:lcidtoname_downlevel.obj
 0002:00005478       ??_C@_1M@PABJILIG@?$AAm?$AAn?$AA?9?$AAm?$AAn?$AA?$AA@ 0000000180012478     libucrt:lcidtoname_downlevel.obj
 0002:00005488       ??_C@_1M@FGBKKIPG@?$AAm?$AAr?$AA?9?$AAi?$AAn?$AA?$AA@ 0000000180012488     libucrt:lcidtoname_downlevel.obj
 0002:00005498       ??_C@_1M@NDBPDDAL@?$AAm?$AAs?$AA?9?$AAb?$AAn?$AA?$AA@ 0000000180012498     libucrt:lcidtoname_downlevel.obj
 0002:000054a8       ??_C@_1M@OPIHOOPI@?$AAm?$AAs?$AA?9?$AAm?$AAy?$AA?$AA@ 00000001800124a8     libucrt:lcidtoname_downlevel.obj
 0002:000054b8       ??_C@_1M@PPDBCNFM@?$AAm?$AAt?$AA?9?$AAm?$AAt?$AA?$AA@ 00000001800124b8     libucrt:lcidtoname_downlevel.obj
 0002:000054c8       ??_C@_1M@KDJDKMDD@?$AAn?$AAb?$AA?9?$AAn?$AAo?$AA?$AA@ 00000001800124c8     libucrt:lcidtoname_downlevel.obj
 0002:000054d8       ??_C@_1M@KFCFLMJP@?$AAn?$AAl?$AA?9?$AAb?$AAe?$AA?$AA@ 00000001800124d8     libucrt:lcidtoname_downlevel.obj
 0002:000054e8       ??_C@_1M@KPOPDDGO@?$AAn?$AAl?$AA?9?$AAn?$AAl?$AA?$AA@ 00000001800124e8     libucrt:lcidtoname_downlevel.obj
 0002:000054f8       ??_C@_1M@LJKPEMLN@?$AAn?$AAn?$AA?9?$AAn?$AAo?$AA?$AA@ 00000001800124f8     libucrt:lcidtoname_downlevel.obj
 0002:00005508       ??_C@_1M@BDGHHBFL@?$AAn?$AAs?$AA?9?$AAz?$AAa?$AA?$AA@ 0000000180012508     libucrt:lcidtoname_downlevel.obj
 0002:00005518       ??_C@_1M@IDEHOAP@?$AAp?$AAa?$AA?9?$AAi?$AAn?$AA?$AA@ 0000000180012518     libucrt:lcidtoname_downlevel.obj
 0002:00005528       ??_C@_1M@HDBKGOGH@?$AAp?$AAl?$AA?9?$AAp?$AAl?$AA?$AA@ 0000000180012528     libucrt:lcidtoname_downlevel.obj
 0002:00005538       ??_C@_1M@LJLLCMEH@?$AAp?$AAt?$AA?9?$AAb?$AAr?$AA?$AA@ 0000000180012538     libucrt:lcidtoname_downlevel.obj
 0002:00005548       ??_C@_1M@NCMONAAL@?$AAp?$AAt?$AA?9?$AAp?$AAt?$AA?$AA@ 0000000180012548     libucrt:lcidtoname_downlevel.obj
 0002:00005558       ??_C@_1O@EAKMAJDN@?$AAq?$AAu?$AAz?$AA?9?$AAb?$AAo?$AA?$AA@ 0000000180012558     libucrt:lcidtoname_downlevel.obj
 0002:00005568       ??_C@_1O@BHHPIGDN@?$AAq?$AAu?$AAz?$AA?9?$AAe?$AAc?$AA?$AA@ 0000000180012568     libucrt:lcidtoname_downlevel.obj
 0002:00005578       ??_C@_1O@GBAPEKMJ@?$AAq?$AAu?$AAz?$AA?9?$AAp?$AAe?$AA?$AA@ 0000000180012578     libucrt:lcidtoname_downlevel.obj
 0002:00005588       ??_C@_1M@CLGLEFBO@?$AAr?$AAo?$AA?9?$AAr?$AAo?$AA?$AA@ 0000000180012588     libucrt:lcidtoname_downlevel.obj
 0002:00005598       ??_C@_1M@CEEDODME@?$AAr?$AAu?$AA?9?$AAr?$AAu?$AA?$AA@ 0000000180012598     libucrt:lcidtoname_downlevel.obj
 0002:000055a8       ??_C@_1M@HPKKKMPP@?$AAs?$AAa?$AA?9?$AAi?$AAn?$AA?$AA@ 00000001800125a8     libucrt:lcidtoname_downlevel.obj
 0002:000055b8       ??_C@_1M@BKMAIGOJ@?$AAs?$AAe?$AA?9?$AAf?$AAi?$AA?$AA@ 00000001800125b8     libucrt:lcidtoname_downlevel.obj
 0002:000055c8       ??_C@_1M@NDPIFLFI@?$AAs?$AAe?$AA?9?$AAn?$AAo?$AA?$AA@ 00000001800125c8     libucrt:lcidtoname_downlevel.obj
 0002:000055d8       ??_C@_1M@DANKKHJ@?$AAs?$AAe?$AA?9?$AAs?$AAe?$AA?$AA@ 00000001800125d8     libucrt:lcidtoname_downlevel.obj
 0002:000055e8       ??_C@_1M@PNBLONPJ@?$AAs?$AAk?$AA?9?$AAs?$AAk?$AA?$AA@ 00000001800125e8     libucrt:lcidtoname_downlevel.obj
 0002:000055f8       ??_C@_1M@LFMODOAL@?$AAs?$AAl?$AA?9?$AAs?$AAi?$AA?$AA@ 00000001800125f8     libucrt:lcidtoname_downlevel.obj
 0002:00005608       ??_C@_1O@DFKOMPG@?$AAs?$AAm?$AAa?$AA?9?$AAn?$AAo?$AA?$AA@ 0000000180012608     libucrt:lcidtoname_downlevel.obj
 0002:00005618       ??_C@_1O@NDKPBNNH@?$AAs?$AAm?$AAa?$AA?9?$AAs?$AAe?$AA?$AA@ 0000000180012618     libucrt:lcidtoname_downlevel.obj
 0002:00005628       ??_C@_1O@PLLKBHAB@?$AAs?$AAm?$AAj?$AA?9?$AAn?$AAo?$AA?$AA@ 0000000180012628     libucrt:lcidtoname_downlevel.obj
 0002:00005638       ??_C@_1O@CLEPOGCA@?$AAs?$AAm?$AAj?$AA?9?$AAs?$AAe?$AA?$AA@ 0000000180012638     libucrt:lcidtoname_downlevel.obj
 0002:00005648       ??_C@_1O@DLGJGKMK@?$AAs?$AAm?$AAn?$AA?9?$AAf?$AAi?$AA?$AA@ 0000000180012648     libucrt:lcidtoname_downlevel.obj
 0002:00005658       ??_C@_1O@OJDJGAJC@?$AAs?$AAm?$AAs?$AA?9?$AAf?$AAi?$AA?$AA@ 0000000180012658     libucrt:lcidtoname_downlevel.obj
 0002:00005668       ??_C@_1M@BOFOGHPB@?$AAs?$AAq?$AA?9?$AAa?$AAl?$AA?$AA@ 0000000180012668     libucrt:lcidtoname_downlevel.obj
 0002:00005678       ??_C@_1BG@LJBBIPGB@?$AAs?$AAr?$AA?9?$AAb?$AAa?$AA?9?$AAc?$AAy?$AAr?$AAl?$AA?$AA@ 0000000180012678     libucrt:lcidtoname_downlevel.obj
 0002:00005690       ??_C@_1BG@JLBENFOE@?$AAs?$AAr?$AA?9?$AAb?$AAa?$AA?9?$AAl?$AAa?$AAt?$AAn?$AA?$AA@ 0000000180012690     libucrt:lcidtoname_downlevel.obj
 0002:000056a8       ??_C@_1BG@KODPNHE@?$AAs?$AAr?$AA?9?$AAs?$AAp?$AA?9?$AAc?$AAy?$AAr?$AAl?$AA?$AA@ 00000001800126a8     libucrt:lcidtoname_downlevel.obj
 0002:000056c0       ??_C@_1BG@CIOGKHPB@?$AAs?$AAr?$AA?9?$AAs?$AAp?$AA?9?$AAl?$AAa?$AAt?$AAn?$AA?$AA@ 00000001800126c0     libucrt:lcidtoname_downlevel.obj
 0002:000056d8       ??_C@_1M@NGFJLMAC@?$AAs?$AAv?$AA?9?$AAf?$AAi?$AA?$AA@ 00000001800126d8     libucrt:lcidtoname_downlevel.obj
 0002:000056e8       ??_C@_1M@MPJEJAJC@?$AAs?$AAv?$AA?9?$AAs?$AAe?$AA?$AA@ 00000001800126e8     libucrt:lcidtoname_downlevel.obj
 0002:000056f8       ??_C@_1M@MPNDHLFK@?$AAs?$AAw?$AA?9?$AAk?$AAe?$AA?$AA@ 00000001800126f8     libucrt:lcidtoname_downlevel.obj
 0002:00005708       ??_C@_1O@KOHBJJI@?$AAs?$AAy?$AAr?$AA?9?$AAs?$AAy?$AA?$AA@ 0000000180012708     libucrt:lcidtoname_downlevel.obj
 0002:00005718       ??_C@_1M@LDCEFHA@?$AAt?$AAa?$AA?9?$AAi?$AAn?$AA?$AA@ 0000000180012718     libucrt:lcidtoname_downlevel.obj
 0002:00005728       ??_C@_1M@CNJOFAK@?$AAt?$AAe?$AA?9?$AAi?$AAn?$AA?$AA@ 0000000180012728     libucrt:lcidtoname_downlevel.obj
 0002:00005738       ??_C@_1M@GNAECACD@?$AAt?$AAh?$AA?9?$AAt?$AAh?$AA?$AA@ 0000000180012738     libucrt:lcidtoname_downlevel.obj
 0002:00005748       ??_C@_1M@CHBIHOJO@?$AAt?$AAn?$AA?9?$AAz?$AAa?$AA?$AA@ 0000000180012748     libucrt:lcidtoname_downlevel.obj
 0002:00005758       ??_C@_1M@GCCMIGPJ@?$AAt?$AAr?$AA?9?$AAt?$AAr?$AA?$AA@ 0000000180012758     libucrt:lcidtoname_downlevel.obj
 0002:00005768       ??_C@_1M@CELMCNBK@?$AAt?$AAt?$AA?9?$AAr?$AAu?$AA?$AA@ 0000000180012768     libucrt:lcidtoname_downlevel.obj
 0002:00005778       ??_C@_1M@KLMCELGA@?$AAu?$AAk?$AA?9?$AAu?$AAa?$AA?$AA@ 0000000180012778     libucrt:lcidtoname_downlevel.obj
 0002:00005788       ??_C@_1M@EPAJJAJF@?$AAu?$AAr?$AA?9?$AAp?$AAk?$AA?$AA@ 0000000180012788     libucrt:lcidtoname_downlevel.obj
 0002:00005798       ??_C@_1BG@GEGPMCDJ@?$AAu?$AAz?$AA?9?$AAu?$AAz?$AA?9?$AAc?$AAy?$AAr?$AAl?$AA?$AA@ 0000000180012798     libucrt:lcidtoname_downlevel.obj
 0002:000057b0       ??_C@_1BG@EGGKJILM@?$AAu?$AAz?$AA?9?$AAu?$AAz?$AA?9?$AAl?$AAa?$AAt?$AAn?$AA?$AA@ 00000001800127b0     libucrt:lcidtoname_downlevel.obj
 0002:000057c8       ??_C@_1M@GFOCLFF@?$AAv?$AAi?$AA?9?$AAv?$AAn?$AA?$AA@ 00000001800127c8     libucrt:lcidtoname_downlevel.obj
 0002:000057d8       ??_C@_1M@CPAMEDFI@?$AAx?$AAh?$AA?9?$AAz?$AAa?$AA?$AA@ 00000001800127d8     libucrt:lcidtoname_downlevel.obj
 0002:000057e8       ??_C@_1O@EBKIFIGN@?$AAz?$AAh?$AA?9?$AAc?$AAh?$AAs?$AA?$AA@ 00000001800127e8     libucrt:lcidtoname_downlevel.obj
 0002:000057f8       ??_C@_1O@NMHPGANE@?$AAz?$AAh?$AA?9?$AAc?$AAh?$AAt?$AA?$AA@ 00000001800127f8     libucrt:lcidtoname_downlevel.obj
 0002:00005808       ??_C@_1M@LPINJOMC@?$AAz?$AAh?$AA?9?$AAc?$AAn?$AA?$AA@ 0000000180012808     libucrt:lcidtoname_downlevel.obj
 0002:00005818       ??_C@_1M@OCJEJODD@?$AAz?$AAh?$AA?9?$AAh?$AAk?$AA?$AA@ 0000000180012818     libucrt:lcidtoname_downlevel.obj
 0002:00005828       ??_C@_1M@DNDLJINH@?$AAz?$AAh?$AA?9?$AAm?$AAo?$AA?$AA@ 0000000180012828     libucrt:lcidtoname_downlevel.obj
 0002:00005838       ??_C@_1M@MBFDNDND@?$AAz?$AAh?$AA?9?$AAs?$AAg?$AA?$AA@ 0000000180012838     libucrt:lcidtoname_downlevel.obj
 0002:00005848       ??_C@_1M@IMEPLEPE@?$AAz?$AAh?$AA?9?$AAt?$AAw?$AA?$AA@ 0000000180012848     libucrt:lcidtoname_downlevel.obj
 0002:00005858       ??_C@_1M@BBGHNHJP@?$AAz?$AAu?$AA?9?$AAz?$AAa?$AA?$AA@ 0000000180012858     libucrt:lcidtoname_downlevel.obj
 0002:00005864       ??_C@_00CNPNBAHC@?$AA@     0000000180012864     libucrt:mbrtowc.obj
 0002:00005ac0       ??_C@_1BA@BALFACEM@?$AAC?$AAO?$AAN?$AAO?$AAU?$AAT?$AA$?$AA?$AA@ 0000000180012ac0     libucrt:initcon.obj
 0002:00005ad0       __log10_256_lead           0000000180012ad0     libucrt:log10_256_lead_tail_table.obj
 0002:000062e0       __log10_256_tail           00000001800132e0     libucrt:log10_256_lead_tail_table.obj
 0002:00006af0       __log_F_inv_qword          0000000180013af0     libucrt:log_f_inv_qword_table.obj
 0002:00007300       ??_C@_05HGHHAHAP@log10?$AA@ 0000000180014300     libucrt:log_special.obj
 0002:00007320       ??_C@_0BK@CCNLFCGP@Wrong?5number?5of?5arguments@ 0000000180014320     module.obj
 0002:00007340       ??_C@_0BE@PJJFJCFG@Argument?5type?5error@ 0000000180014340     module.obj
 0002:00007354       ??_C@_02LMMGJAGL@in@       0000000180014354     module.obj
 0002:00007358       ??_C@_03KEJHNBPP@out@      0000000180014358     module.obj
 0002:00007360       ??_C@_0CO@CFKGOEGI@Unknown?5pipe?5direction?0?5must?5be@ 0000000180014360     module.obj
 0002:00007390       ??_C@_0BP@PANBNMIL@Handle?5is?5too?5large?5for?5double@ 0000000180014390     module.obj
 0002:000073b0       ??_C@_07ONCODIMN@readEnd@  00000001800143b0     module.obj
 0002:000073b8       ??_C@_08FDBMINPK@writeEnd@ 00000001800143b8     module.obj
 0002:000073c8       ??_C@_0L@NHBPGFGA@createPipe@ 00000001800143c8     module.obj
 0002:000073d8       ??_C@_0DP@EBIMLOIH@d?3?2work?2code?2hcgui_2?2hcgui?2app?2@ 00000001800143d8     module.obj
 0002:00007418       ??_C@_08JMBJLPDN@win32ipc@ 0000000180014418     module.obj
 0002:00007428       ??_C@_0L@FBIDOKLH@CreatePipe@ 0000000180014428     pipe_wrapper.obj
 0002:00007438       ??_C@_0BF@BHFMFMAA@SetHandleInformation@ 0000000180014438     pipe_wrapper.obj
 0002:00007450       __real@43e0000000000000    0000000180014450     module.obj
 0002:00007458       __real@43f0000000000000    0000000180014458     module.obj
 0002:000074d0       _load_config_used          00000001800144d0     LIBCMT:loadcfg.obj
 0002:000078e0       __rtc_iaa                  00000001800148e0     LIBCMT:initsect.obj
 0002:000078e8       __rtc_izz                  00000001800148e8     LIBCMT:initsect.obj
 0002:000078f0       __rtc_taa                  00000001800148f0     LIBCMT:initsect.obj
 0002:000078f8       __rtc_tzz                  00000001800148f8     LIBCMT:initsect.obj
 0002:00008464       __IMPORT_DESCRIPTOR_KERNEL32 0000000180015464     kernel32:KERNEL32.dll
 0002:00008478       __IMPORT_DESCRIPTOR_node   0000000180015478     iojs:node.dll
 0002:0000848c       __NULL_IMPORT_DESCRIPTOR   000000018001548c     kernel32:KERNEL32.dll
 0003:00000000       __security_cookie_complement 0000000180017000     LIBCMT:gs_cookie.obj
 0003:00000008       __security_cookie          0000000180017008     LIBCMT:gs_cookie.obj
 0003:00000010       __scrt_native_dllmain_reason 0000000180017010     LIBCMT:utility.obj
 0003:00000018       __isa_available            0000000180017018     LIBCMT:cpu_disp.obj
 0003:0000001c       __isa_enabled              000000018001701c     LIBCMT:cpu_disp.obj
 0003:00000020       __memcpy_nt_iters          0000000180017020     LIBCMT:cpu_disp.obj
 0003:00000040       __abort_behavior           0000000180017040     libucrt:abort.obj
 0003:00000050       __acrt_initial_locale_data 0000000180017050     libucrt:nlsdata.obj
 0003:000001a8       __acrt_initial_locale_pointers 00000001800171a8     libucrt:nlsdata.obj
 0003:000001b8       __acrt_wide_c_locale_string 00000001800171b8     libucrt:nlsdata.obj
 0003:000004d0       __acrt_initial_multibyte_data 00000001800174d0     libucrt:mbctype.obj
 0003:00000700       _iob                       0000000180017700     libucrt:_file.obj
 0003:00000808       __globallocalestatus       0000000180017808     libucrt:glstatus.obj
 0003:00000810       __acrt_lconv_c             0000000180017810     libucrt:localeconv.obj
 0003:000008a8       __acrt_lconv_static_decimal 00000001800178a8     libucrt:localeconv.obj
 0003:000008ac       __acrt_lconv_static_W_decimal 00000001800178ac     libucrt:localeconv.obj
 0003:000008b0       _lookuptrailbytes          00000001800178b0     libucrt:read.obj
 0003:000009d0       _fltused                   00000001800179d0     LIBCMT:fltused.obj
 0003:00000fa0       ?__type_info_root_node@@3U__type_info_node@@A 0000000180017fa0     LIBCMT:tncleanup.obj
 0003:00000fb0       ?_OptionsStorage@?1??__local_stdio_printf_options@@9@4_KA 0000000180017fb0     LIBCMT:default_local_stdio_options.obj
 0003:00000fb8       ?_OptionsStorage@?1??__local_stdio_scanf_options@@9@4_KA 0000000180017fb8     LIBCMT:default_local_stdio_options.obj
 0003:00000fc0       __scrt_current_native_startup_state 0000000180017fc0     LIBCMT:utility.obj
 0003:00000fc8       __scrt_native_startup_lock 0000000180017fc8     LIBCMT:utility.obj
 0003:00001008       __scrt_debugger_hook_flag  0000000180018008     LIBCMT:utility_desktop.obj
 0003:0000100c       __favor                    000000018001800c     LIBCMT:cpu_disp.obj
 0003:00001010       ?__WinRTOutOfMemoryExceptionCallback@@3P6APEAXXZEA 0000000180018010     libvcruntime:ehhelpers.obj
 0003:00001018       ?pArgList@UnDecorator@@0PEAVReplicator@@EA 0000000180018018     libvcruntime:undname.obj
 0003:00001020       ?pZNameList@UnDecorator@@0PEAVReplicator@@EA 0000000180018020     libvcruntime:undname.obj
 0003:00001028       ?pTemplateArgList@UnDecorator@@0PEAVReplicator@@EA 0000000180018028     libvcruntime:undname.obj
 0003:00001030       ?gName@UnDecorator@@0PEBDEB 0000000180018030     libvcruntime:undname.obj
 0003:00001038       ?name@UnDecorator@@0PEBDEB 0000000180018038     libvcruntime:undname.obj
 0003:00001040       ?disableFlags@UnDecorator@@0KA 0000000180018040     libvcruntime:undname.obj
 0003:00001044       ?fExplicitTemplateParams@UnDecorator@@0_NA 0000000180018044     libvcruntime:undname.obj
 0003:00001045       ?fGetTemplateArgumentList@UnDecorator@@0_NA 0000000180018045     libvcruntime:undname.obj
 0003:00001048       ?m_pGetParameter@UnDecorator@@0P6APEADJ@ZEA 0000000180018048     libvcruntime:undname.obj
 0003:00001050       ?m_CHPENameOffset@UnDecorator@@0KA 0000000180018050     libvcruntime:undname.obj
 0003:00001054       ?m_recursionLevel@UnDecorator@@0KA 0000000180018054     libvcruntime:undname.obj
 0003:00001180       __pPurecall                0000000180018180     libvcruntime:purevirt_data.obj
 0003:00001198       ?c_exit_complete@?1???R<lambda_6e4b09c48022b2350581041d5f6b0c4c>@@QEBA@XZ@4_NA 0000000180018198     libucrt:exit.obj
 0003:000012a8       _environ_table             00000001800182a8     libucrt:environment_initialization.obj
 0003:000012b0       _wenviron_table            00000001800182b0     libucrt:environment_initialization.obj
 0003:000012b8       __dcrt_initial_wide_environment 00000001800182b8     libucrt:environment_initialization.obj
 0003:000012c0       __dcrt_initial_narrow_environment 00000001800182c0     libucrt:environment_initialization.obj
 0003:000012c8       __acrt_atexit_table        00000001800182c8     libucrt:onexit.obj
 0003:000012e0       __acrt_at_quick_exit_table 00000001800182e0     libucrt:onexit.obj
 0003:00001300       __acrt_locale_changed_data 0000000180018300     libucrt:wsetlocale.obj
 0003:00001308       __acrt_current_locale_data 0000000180018308     libucrt:nlsdata.obj
 0003:00001548       _mbctype                   0000000180018548     libucrt:mbctype.obj
 0003:00001550       _mbcasemap                 0000000180018550     libucrt:mbctype.obj
 0003:00001558       __acrt_current_multibyte_data 0000000180018558     libucrt:mbctype.obj
 0003:00001568       _pgmptr                    0000000180018568     libucrt:argv_data.obj
 0003:00001570       __argc                     0000000180018570     libucrt:argv_data.obj
 0003:00001578       __argv                     0000000180018578     libucrt:argv_data.obj
 0003:00001580       __wargv                    0000000180018580     libucrt:argv_data.obj
 0003:00001588       _acmdln                    0000000180018588     libucrt:argv_data.obj
 0003:00001590       _wcmdln                    0000000180018590     libucrt:argv_data.obj
 0003:00001750       __acrt_heap                0000000180018750     libucrt:heap_handle.obj
 0003:00001760       __pioinfo                  0000000180018760     libucrt:ioinit.obj
 0003:00001b60       _nhandle                   0000000180018b60     libucrt:ioinit.obj
 0003:00001b98       _nstream                   0000000180018b98     libucrt:_file.obj
 0003:00001ba0       __piob                     0000000180018ba0     libucrt:_file.obj
 0003:00001ba8       __acrt_stdout_buffer       0000000180018ba8     libucrt:_sftbuf.obj
 0003:00001bb0       __acrt_stderr_buffer       0000000180018bb0     libucrt:_sftbuf.obj
 0003:00001bc0       __acrt_lconv_static_null   0000000180018bc0     libucrt:localeconv.obj
 0003:00001bc4       __acrt_lconv_static_W_null 0000000180018bc4     libucrt:localeconv.obj
 0003:00001bd8       __fma3_is_available        0000000180018bd8     libucrt:fma3_available.obj
 0003:00001bdc       __use_fma3_lib             0000000180018bdc     libucrt:fma3_available.obj
 0003:00001be0       __scrt_ucrt_dll_is_in_use  0000000180018be0     <common>
 0003:00001be8       __dyn_tls_init_callback    0000000180018be8     <common>

 entry point at        0001:00000824

 Static symbols

 0000:fffe4000       .debug$S                   0000000180000000     kernel32:KERNEL32.dll
 0000:fffe4000       .debug$S                   0000000180000000     kernel32:KERNEL32.dll
 0000:fffe4000       .debug$S                   0000000180000000     iojs:node.dll
 0000:fffe4000       .debug$S                   0000000180000000     iojs:node.dll
 0000:fffe4000       .debug$S                   0000000180000000     iojs:node.dll
 0000:fffe4000       .debug$S                   0000000180000000     iojs:node.dll
 0000:fffe4000       .debug$S                   0000000180000000     iojs:node.dll
 0000:fffe4000       .debug$S                   0000000180000000     iojs:node.dll
 0000:fffe4000       .debug$S                   0000000180000000     iojs:node.dll
 0000:fffe4000       .debug$S                   0000000180000000     iojs:node.dll
 0000:fffe4000       .debug$S                   0000000180000000     kernel32:KERNEL32.dll
 0000:fffe4000       .debug$S                   0000000180000000     iojs:node.dll
 0000:fffe4000       .debug$S                   0000000180000000     iojs:node.dll
 0000:fffe4000       .debug$S                   0000000180000000     iojs:node.dll
 0000:fffe4000       .debug$S                   0000000180000000     iojs:node.dll
 0000:fffe4000       .debug$S                   0000000180000000     iojs:node.dll
 0000:fffe4000       .debug$S                   0000000180000000     win32ipc.exp
 0000:fffe4000       .debug$S                   0000000180000000     iojs:node.dll
 0000:fffe4000       .debug$S                   0000000180000000     kernel32:KERNEL32.dll
 0000:fffe4000       .debug$S                   0000000180000000     iojs:node.dll
 0000:fffe4000       .debug$S                   0000000180000000     iojs:node.dll
 0000:fffe4000       .debug$S                   0000000180000000     iojs:node.dll
 0000:fffe4000       .debug$S                   0000000180000000     iojs:node.dll
 0000:fffe4000       .debug$S                   0000000180000000     kernel32:KERNEL32.dll
 0000:fffe4000       .debug$S                   0000000180000000     kernel32:KERNEL32.dll
 0000:fffe4000       .debug$S                   0000000180000000     kernel32:KERNEL32.dll
 0000:fffe4000       .debug$S                   0000000180000000     kernel32:KERNEL32.dll
 0000:fffe4000       .debug$S                   0000000180000000     kernel32:KERNEL32.dll
 0000:fffe4000       .debug$S                   0000000180000000     kernel32:KERNEL32.dll
 0000:fffe4000       .debug$S                   0000000180000000     kernel32:KERNEL32.dll
 0000:fffe4000       .debug$S                   0000000180000000     kernel32:KERNEL32.dll
 0000:fffe4000       .debug$S                   0000000180000000     kernel32:KERNEL32.dll
 0000:fffe4000       .debug$S                   0000000180000000     kernel32:KERNEL32.dll
 0000:fffe4000       .debug$S                   0000000180000000     kernel32:KERNEL32.dll
 0000:fffe4000       .debug$S                   0000000180000000     kernel32:KERNEL32.dll
 0000:fffe4000       .debug$S                   0000000180000000     kernel32:KERNEL32.dll
 0000:fffe4000       .debug$S                   0000000180000000     kernel32:KERNEL32.dll
 0000:fffe4000       .debug$S                   0000000180000000     kernel32:KERNEL32.dll
 0000:fffe4000       .debug$S                   0000000180000000     kernel32:KERNEL32.dll
 0000:fffe4000       .debug$S                   0000000180000000     kernel32:KERNEL32.dll
 0000:fffe4000       .debug$S                   0000000180000000     kernel32:KERNEL32.dll
 0000:fffe4000       .debug$S                   0000000180000000     kernel32:KERNEL32.dll
 0000:fffe4000       .debug$S                   0000000180000000     kernel32:KERNEL32.dll
 0000:fffe4000       .debug$S                   0000000180000000     kernel32:KERNEL32.dll
 0000:fffe4000       .debug$S                   0000000180000000     kernel32:KERNEL32.dll
 0000:fffe4000       .debug$S                   0000000180000000     kernel32:KERNEL32.dll
 0000:fffe4000       .debug$S                   0000000180000000     kernel32:KERNEL32.dll
 0000:fffe4000       .debug$S                   0000000180000000     kernel32:KERNEL32.dll
 0000:fffe4000       .debug$S                   0000000180000000     kernel32:KERNEL32.dll
 0000:fffe4000       .debug$S                   0000000180000000     kernel32:KERNEL32.dll
 0000:fffe4000       .debug$S                   0000000180000000     kernel32:KERNEL32.dll
 0000:fffe4000       .debug$S                   0000000180000000     kernel32:KERNEL32.dll
 0000:fffe4000       .debug$S                   0000000180000000     kernel32:KERNEL32.dll
 0000:fffe4000       .debug$S                   0000000180000000     kernel32:KERNEL32.dll
 0000:fffe4000       .debug$S                   0000000180000000     kernel32:KERNEL32.dll
 0000:fffe4000       .debug$S                   0000000180000000     kernel32:KERNEL32.dll
 0000:fffe4000       .debug$S                   0000000180000000     kernel32:KERNEL32.dll
 0000:fffe4000       .debug$S                   0000000180000000     kernel32:KERNEL32.dll
 0000:fffe4000       .debug$S                   0000000180000000     kernel32:KERNEL32.dll
 0000:fffe4000       .debug$S                   0000000180000000     kernel32:KERNEL32.dll
 0000:fffe4000       .debug$S                   0000000180000000     kernel32:KERNEL32.dll
 0000:fffe4000       .debug$S                   0000000180000000     kernel32:KERNEL32.dll
 0000:fffe4000       .debug$S                   0000000180000000     kernel32:KERNEL32.dll
 0000:fffe4000       .debug$S                   0000000180000000     kernel32:KERNEL32.dll
 0000:fffe4000       .debug$S                   0000000180000000     kernel32:KERNEL32.dll
 0000:fffe4000       .debug$S                   0000000180000000     kernel32:KERNEL32.dll
 0000:fffe4000       .debug$S                   0000000180000000     kernel32:KERNEL32.dll
 0000:fffe4000       .debug$S                   0000000180000000     kernel32:KERNEL32.dll
 0000:fffe4000       .debug$S                   0000000180000000     kernel32:KERNEL32.dll
 0000:fffe4000       .debug$S                   0000000180000000     kernel32:KERNEL32.dll
 0000:fffe4000       .debug$S                   0000000180000000     kernel32:KERNEL32.dll
 0000:fffe4000       .debug$S                   0000000180000000     kernel32:KERNEL32.dll
 0000:fffe4000       .debug$S                   0000000180000000     kernel32:KERNEL32.dll
 0000:fffe4000       .debug$S                   0000000180000000     kernel32:KERNEL32.dll
 0000:fffe4000       .debug$S                   0000000180000000     kernel32:KERNEL32.dll
 0000:fffe4000       .debug$S                   0000000180000000     kernel32:KERNEL32.dll
 0000:fffe4000       .debug$S                   0000000180000000     kernel32:KERNEL32.dll
 0000:fffe4000       .debug$S                   0000000180000000     kernel32:KERNEL32.dll
 0000:fffe4000       .debug$S                   0000000180000000     kernel32:KERNEL32.dll
 0000:fffe4000       .debug$S                   0000000180000000     kernel32:KERNEL32.dll
 0000:fffe4000       .debug$S                   0000000180000000     kernel32:KERNEL32.dll
 0000:fffe4000       .debug$S                   0000000180000000     kernel32:KERNEL32.dll
 0000:fffe4000       .debug$S                   0000000180000000     kernel32:KERNEL32.dll
 0000:fffe4000       .debug$S                   0000000180000000     kernel32:KERNEL32.dll
 0000:fffe4000       .debug$S                   0000000180000000     kernel32:KERNEL32.dll
 0000:fffe4000       .debug$S                   0000000180000000     kernel32:KERNEL32.dll
 0000:fffe4000       .debug$S                   0000000180000000     kernel32:KERNEL32.dll
 0000:fffe4000       .debug$S                   0000000180000000     kernel32:KERNEL32.dll
 0000:fffe4000       .debug$S                   0000000180000000     kernel32:KERNEL32.dll
 0000:fffe4000       .debug$S                   0000000180000000     kernel32:KERNEL32.dll
 0000:fffe4000       .debug$S                   0000000180000000     kernel32:KERNEL32.dll
 0000:fffe4000       .debug$S                   0000000180000000     kernel32:KERNEL32.dll
 0000:fffe4000       .debug$S                   0000000180000000     kernel32:KERNEL32.dll
 0000:fffe4000       .debug$S                   0000000180000000     kernel32:KERNEL32.dll
 0000:fffe4000       .debug$S                   0000000180000000     kernel32:KERNEL32.dll
 0000:fffe4000       .debug$S                   0000000180000000     kernel32:KERNEL32.dll
 0000:fffe4000       .debug$S                   0000000180000000     kernel32:KERNEL32.dll
 0000:fffe4000       .debug$S                   0000000180000000     kernel32:KERNEL32.dll
 0000:fffe4000       .debug$S                   0000000180000000     kernel32:KERNEL32.dll
 0000:fffe4000       .debug$S                   0000000180000000     kernel32:KERNEL32.dll
 0000:fffe4000       .debug$S                   0000000180000000     kernel32:KERNEL32.dll
 0000:fffe4000       .debug$S                   0000000180000000     kernel32:KERNEL32.dll
 0000:fffe4000       .debug$S                   0000000180000000     kernel32:KERNEL32.dll
 0000:fffe4000       .debug$S                   0000000180000000     kernel32:KERNEL32.dll
 0000:fffe4000       .debug$S                   0000000180000000     kernel32:KERNEL32.dll
 0000:fffe4000       .debug$S                   0000000180000000     kernel32:KERNEL32.dll
 0001:000004b0       _register_win32ipc         00000001800014b0 f   module.obj
 0001:000004c0       $$000000                   00000001800014c0     LIBCMT:amdsecgs.obj
 0001:000004f4       ?dllmain_crt_dispatch@@YAHQEAUHINSTANCE__@@KQEAX@Z 00000001800014f4 f   LIBCMT:dll_dllmain.obj
 0001:00000544       ?dllmain_crt_process_attach@@YAHQEAUHINSTANCE__@@QEAX@Z 0000000180001544 f   LIBCMT:dll_dllmain.obj
 0001:00000660       ?dllmain_crt_process_detach@@YAH_N@Z 0000000180001660 f   LIBCMT:dll_dllmain.obj
 0001:000006f0       ?dllmain_dispatch@@YAHQEAUHINSTANCE__@@KQEAX@Z 00000001800016f0 f   LIBCMT:dll_dllmain.obj
 0001:00000a1c       capture_current_context    0000000180001a1c f   LIBCMT:gs_report.obj
 0001:00000a8c       capture_previous_context   0000000180001a8c f   LIBCMT:gs_report.obj
 0001:000015f0       $$000000                   00000001800025f0     libvcruntime:memset.obj
 0001:000016ec       MsetTab                    00000001800026ec     libvcruntime:memset.obj
 0001:000017b0       $$000000                   00000001800027b0     libvcruntime:notify.obj
 0001:00001ad8       ?try_get_function@@YAPEAXW4function_id@?A0xa3b92138@@QEBDQEBW4module_id@2@2@Z 0000000180002ad8 f   libvcruntime:winapi_downlevel.obj
 0001:00001ec0       $$000000                   0000000180002ec0     libvcruntime:memcpy.obj
 0001:00001f77       MoveSmall                  0000000180002f77     libvcruntime:memcpy.obj
 0001:00002330       $$000000                   0000000180003330     libvcruntime:handlers.obj
 0001:000026b0       ??$?RV<lambda_d80eeec6fff315bfe5c115232f3240e3>@@AEAV<lambda_6e4b09c48022b2350581041d5f6b0c4c>@@V<lambda_2358e3775559c9db80273638284d5e45>@@@?$__crt_seh_guarded_call@X@@QEAAX$$QEAV<lambda_d80eeec6fff315bfe5c115232f3240e3>@@AEAV<lambda_6e4b09c48022b2350581041d5f6b0c4c>@@$$QEAV<lambda_2358e3775559c9db80273638284d5e45>@@@Z 00000001800036b0 f   libucrt:exit.obj
 0001:000026e8       ??R<lambda_6e4b09c48022b2350581041d5f6b0c4c>@@QEBA@XZ 00000001800036e8 f   libucrt:exit.obj
 0001:000027ac       ?atexit_exception_filter@@YAHK@Z 00000001800037ac f   libucrt:exit.obj
 0001:000027b8       ?common_exit@@YAXHW4_crt_exit_cleanup_mode@@W4_crt_exit_return_mode@@@Z 00000001800037b8 f   libucrt:exit.obj
 0001:00002874       ?exit_or_terminate_process@@YAXI@Z 0000000180003874 f   libucrt:exit.obj
 0001:000028c0       ?try_cor_exit_process@@YAXI@Z 00000001800038c0 f   libucrt:exit.obj
 0001:00002948       ??$parse_command_line@D@@YAXPEADPEAPEAD0PEA_K2@Z 0000000180003948 f   libucrt:argv_parsing.obj
 0001:00002cf4       ??$common_initialize_environment_nolock@D@@YAHXZ 0000000180003cf4 f   libucrt:environment_initialization.obj
 0001:00002d60       ??$create_environment@D@@YAQEAPEADQEAD@Z 0000000180003d60 f   libucrt:environment_initialization.obj
 0001:00002e68       ??$free_environment@D@@YAXQEAPEAD@Z 0000000180003e68 f   libucrt:environment_initialization.obj
 0001:00002e68       ??$free_environment@_W@@YAXQEAPEA_W@Z 0000000180003e68 f   libucrt:environment_initialization.obj
 0001:00002eac       ??$uninitialize_environment_internal@D@@YAXAEAPEAPEAD@Z 0000000180003eac f   libucrt:environment_initialization.obj
 0001:00002ec8       ??$uninitialize_environment_internal@_W@@YAXAEAPEAPEA_W@Z 0000000180003ec8 f   libucrt:environment_initialization.obj
 0001:00002f24       ??$?RV<lambda_7777bce6b2f8c936911f934f8298dc43>@@AEAV<lambda_f03950bc5685219e0bcd2087efbe011e>@@V<lambda_3883c3dff614d5e0c5f61bb1ac94921c>@@@?$__crt_seh_guarded_call@H@@QEAAH$$QEAV<lambda_7777bce6b2f8c936911f934f8298dc43>@@AEAV<lambda_f03950bc5685219e0bcd2087efbe011e>@@$$QEAV<lambda_3883c3dff614d5e0c5f61bb1ac94921c>@@@Z 0000000180003f24 f   libucrt:onexit.obj
 0001:00002f60       ??R<lambda_f03950bc5685219e0bcd2087efbe011e>@@QEBAHXZ 0000000180003f60 f   libucrt:onexit.obj
 0001:000030dc       initialize_global_variables 00000001800040dc f   libucrt:initialization.obj
 0001:000030f0       initialize_c               00000001800040f0 f   libucrt:initialization.obj
 0001:00003114       uninitialize_global_state_isolation 0000000180004114 f   libucrt:initialization.obj
 0001:00003114       initialize_environment     0000000180004114 f   libucrt:initialization.obj
 0001:00003114       report_memory_leaks        0000000180004114 f   libucrt:initialization.obj
 0001:00003114       initialize_global_state_isolation 0000000180004114 f   libucrt:initialization.obj
 0001:00003114       uninitialize_c             0000000180004114 f   libucrt:initialization.obj
 0001:00003118       uninitialize_environment   0000000180004118 f   libucrt:initialization.obj
 0001:00003128       initialize_pointers        0000000180004128 f   libucrt:initialization.obj
 0001:00003168       uninitialize_vcruntime     0000000180004168 f   libucrt:initialization.obj
 0001:00003170       uninitialize_allocated_memory 0000000180004170 f   libucrt:initialization.obj
 0001:000031b0       uninitialize_allocated_io_buffers 00000001800041b0 f   libucrt:initialization.obj
 0001:00003320       $$000000                   0000000180004320     libucrt:strncmp.obj
 0001:00003790       ??$?RV<lambda_0ae27a3a962d80f24befdcbee591983d>@@AEAV<lambda_8d0ee55de4b1038c4002e0adecdf1839>@@V<lambda_dc504788e8f1664fe9b84e20bfb512f2>@@@?$__crt_seh_guarded_call@X@@QEAAX$$QEAV<lambda_0ae27a3a962d80f24befdcbee591983d>@@AEAV<lambda_8d0ee55de4b1038c4002e0adecdf1839>@@$$QEAV<lambda_dc504788e8f1664fe9b84e20bfb512f2>@@@Z 0000000180004790 f   libucrt:per_thread_data.obj
 0001:000037d0       ??$?RV<lambda_2d41944a1d46af3157314b8a01080d33>@@AEAV<lambda_8f455de75cd7d7f24b4096f044d8b9e6>@@V<lambda_aa500f224e6afead328df44964fe2772>@@@?$__crt_seh_guarded_call@X@@QEAAX$$QEAV<lambda_2d41944a1d46af3157314b8a01080d33>@@AEAV<lambda_8f455de75cd7d7f24b4096f044d8b9e6>@@$$QEAV<lambda_aa500f224e6afead328df44964fe2772>@@@Z 00000001800047d0 f   libucrt:per_thread_data.obj
 0001:00003810       ??$?RV<lambda_aa87e3671a710a21b5dc78c0bdf72e11>@@AEAV<lambda_92619d2358a28f41a33ba319515a20b9>@@V<lambda_6992ecaafeb10aed2b74cb1fae11a551>@@@?$__crt_seh_guarded_call@X@@QEAAX$$QEAV<lambda_aa87e3671a710a21b5dc78c0bdf72e11>@@AEAV<lambda_92619d2358a28f41a33ba319515a20b9>@@$$QEAV<lambda_6992ecaafeb10aed2b74cb1fae11a551>@@@Z 0000000180004810 f   libucrt:per_thread_data.obj
 0001:00003858       ??$?RV<lambda_f2e299630e499de9f9a165e60fcd3db5>@@AEAV<lambda_2ae9d31cdba2644fcbeaf08da7c24588>@@V<lambda_40d01ff24d0e7b3814fdbdcee8eab3c7>@@@?$__crt_seh_guarded_call@X@@QEAAX$$QEAV<lambda_f2e299630e499de9f9a165e60fcd3db5>@@AEAV<lambda_2ae9d31cdba2644fcbeaf08da7c24588>@@$$QEAV<lambda_40d01ff24d0e7b3814fdbdcee8eab3c7>@@@Z 0000000180004858 f   libucrt:per_thread_data.obj
 0001:000038b8       ?construct_ptd_array@@YAXQEAU__acrt_ptd@@@Z 00000001800048b8 f   libucrt:per_thread_data.obj
 0001:00003988       ?destroy_fls@@YAXPEAX@Z    0000000180004988 f   libucrt:per_thread_data.obj
 0001:000039a8       ?destroy_ptd_array@@YAXQEAU__acrt_ptd@@@Z 00000001800049a8 f   libucrt:per_thread_data.obj
 0001:00003aa0       ?replace_current_thread_locale_nolock@@YAXQEAU__acrt_ptd@@QEAU__crt_locale_data@@@Z 0000000180004aa0 f   libucrt:per_thread_data.obj
 0001:00003e5c       ??$?RV<lambda_410d79af7f07d98d83a3f525b3859a53>@@AEAV<lambda_3e16ef9562a7dcce91392c22ab16ea36>@@V<lambda_38119f0e861e05405d8a144b9b982f0a>@@@?$__crt_seh_guarded_call@X@@QEAAX$$QEAV<lambda_410d79af7f07d98d83a3f525b3859a53>@@AEAV<lambda_3e16ef9562a7dcce91392c22ab16ea36>@@$$QEAV<lambda_38119f0e861e05405d8a144b9b982f0a>@@@Z 0000000180004e5c f   libucrt:wsetlocale.obj
 0001:000040b4       ?<lambda_invoker_cdecl>@<lambda_c2303d2482d7c3675ea2e24c4cfb6115>@@CAHPEBX0@Z 00000001800050b4 f   libucrt:argv_wildcards.obj
 0001:000043cc       ??$common_expand_argv_wildcards@D@@YAHQEAPEADQEAPEAPEAD@Z 00000001800053cc f   libucrt:argv_wildcards.obj
 0001:000045d8       ??$copy_and_add_argument_to_buffer@D@@YAHQEBD0_KAEAV?$argument_list@D@?A0x5f5c8891@@@Z 00000001800055d8 f   libucrt:argv_wildcards.obj
 0001:00004760       ??$expand_argument_wildcards@D@@YAHQEAD0AEAV?$argument_list@D@?A0x5f5c8891@@@Z 0000000180005760 f   libucrt:argv_wildcards.obj
 0001:00004cac       ??$?RV<lambda_efdfa57d1f175319df784efa44bb7b81>@@AEAV<lambda_5f0a4c1567f8adc6734073e5d1e1b35c>@@V<lambda_2e8a7d3640ea6ccb4c2413664c2db6fd>@@@?$__crt_seh_guarded_call@X@@QEAAX$$QEAV<lambda_efdfa57d1f175319df784efa44bb7b81>@@AEAV<lambda_5f0a4c1567f8adc6734073e5d1e1b35c>@@$$QEAV<lambda_2e8a7d3640ea6ccb4c2413664c2db6fd>@@@Z 0000000180005cac f   libucrt:mbctype.obj
 0001:00004e68       ?getSystemCP@@YAHH@Z       0000000180005e68 f   libucrt:mbctype.obj
 0001:00004ee8       ?setSBCS@@YAXPEAU__crt_multibyte_data@@@Z 0000000180005ee8 f   libucrt:mbctype.obj
 0001:00004f78       ?setSBUpLow@@YAXPEAU__crt_multibyte_data@@@Z 0000000180005f78 f   libucrt:mbctype.obj
 0001:0000515c       ?setmbcp_internal@@YAHH_NQEAU__acrt_ptd@@QEAPEAU__crt_multibyte_data@@@Z 000000018000615c f   libucrt:mbctype.obj
 0001:00005320       ?update_thread_multibyte_data_internal@@YAPEAU__crt_multibyte_data@@QEAU__acrt_ptd@@QEAPEAU1@@Z 0000000180006320 f   libucrt:mbctype.obj
 0001:00005710       ?x_ismbbtype_l@@YAHPEAU__crt_locale_pointers@@IHH@Z 0000000180006710 f   libucrt:ismbbyte.obj
 0001:00005a54       ?try_get_function@@YAPEAXW4function_id@?A0x391cf84c@@QEBDQEBW4module_id@2@2@Z 0000000180006a54 f   libucrt:winapi_thunks.obj
 0001:00006014       ?initialize_inherited_file_handles_nolock@@YAXXZ 0000000180007014 f   libucrt:ioinit.obj
 0001:00006104       ?initialize_stdio_handles_nolock@@YAXXZ 0000000180007104 f   libucrt:ioinit.obj
 0001:000063b4       ??$?RV<lambda_450d765d439847d4c735a33c368b5fc0>@@AEAV<lambda_44731a7d0e6d81c3e6aa82d741081786>@@V<lambda_601a2a7da3b7a96e9554ac7215c4b07c>@@@?$__crt_seh_guarded_call@P6AXH@Z@@QEAAP6AXH@Z$$QEAV<lambda_450d765d439847d4c735a33c368b5fc0>@@AEAV<lambda_44731a7d0e6d81c3e6aa82d741081786>@@$$QEAV<lambda_601a2a7da3b7a96e9554ac7215c4b07c>@@@Z 00000001800073b4 f   libucrt:signal.obj
 0001:00006710       ??$?RV<lambda_842d9ff0dc9ef11c61343bbaebe7f885>@@AEAV<lambda_c5860995281e5c4ce005b3de8f5874ee>@@V<lambda_d90129c13df834fdcbf8d2b88dafcf2d>@@@?$__crt_seh_guarded_call@X@@QEAAX$$QEAV<lambda_842d9ff0dc9ef11c61343bbaebe7f885>@@AEAV<lambda_c5860995281e5c4ce005b3de8f5874ee>@@$$QEAV<lambda_d90129c13df834fdcbf8d2b88dafcf2d>@@@Z 0000000180007710 f   libucrt:fflush.obj
 0001:000067ac       ??$?RV<lambda_886d6c58226a84441f68b9f2b8217b83>@@AEAV<lambda_ab61a845afdef5b7c387490eaf3616ee>@@V<lambda_f7f22ab5edc0698d5f6905b0d3f44752>@@@?$__crt_seh_guarded_call@X@@QEAAX$$QEAV<lambda_886d6c58226a84441f68b9f2b8217b83>@@AEAV<lambda_ab61a845afdef5b7c387490eaf3616ee>@@$$QEAV<lambda_f7f22ab5edc0698d5f6905b0d3f44752>@@@Z 00000001800077ac f   libucrt:fflush.obj
 0001:0000688c       ?common_flush_all@@YAH_N@Z 000000018000788c f   libucrt:fflush.obj
 0001:00006dd8       ?__acrt_LCMapStringA_stat@@YAHPEAU__crt_locale_pointers@@PEB_WKPEBDHPEADHHH@Z 0000000180007dd8 f   libucrt:lcmapstringa.obj
 0001:0000770c       ?free_crt_array_internal@@YAXQEAPEBX_K@Z 000000018000870c f   libucrt:inittime.obj
 0001:00007ea4       fallbackMethod             0000000180008ea4 f   libucrt:strpbrk.obj
 0001:00008274       $LN78                      0000000180009274     libucrt:strpbrk.obj
 0001:000082b0       $LN77                      00000001800092b0     libucrt:strpbrk.obj
 0001:000082f0       $LN76                      00000001800092f0     libucrt:strpbrk.obj
 0001:000083cc       ?initialize_multibyte@@YAHXZ 00000001800093cc f   libucrt:multibyte_initializer.obj
 0001:0000849c       ?GetTableIndexFromLocaleName@@YAHPEB_W@Z 000000018000949c f   libucrt:lcidtoname_downlevel.obj
 0001:000088dc       ??$?RV<lambda_a37b2b86f63e897a80ea819b0eb08c01>@@AEAV<lambda_38ce7e780aa69e748d6df282ebc68efe>@@V<lambda_99fb1378e971ab6e7edea83e3a7a83a2>@@@?$__crt_seh_guarded_call@H@@QEAAH$$QEAV<lambda_a37b2b86f63e897a80ea819b0eb08c01>@@AEAV<lambda_38ce7e780aa69e748d6df282ebc68efe>@@$$QEAV<lambda_99fb1378e971ab6e7edea83e3a7a83a2>@@@Z 00000001800098dc f   libucrt:commit.obj
 0001:000089fc       ?write_double_translated_ansi_nolock@@YA?AUwrite_result@?A0x17268360@@HQEBDI@Z 00000001800099fc f   libucrt:write.obj
 0001:00008ed8       ?write_text_ansi_nolock@@YA?AUwrite_result@?A0x17268360@@HQEBDI@Z 0000000180009ed8 f   libucrt:write.obj
 0001:00008fdc       ?write_text_utf16le_nolock@@YA?AUwrite_result@?A0x17268360@@HQEBDI@Z 0000000180009fdc f   libucrt:write.obj
 0001:000090f8       ?write_text_utf8_nolock@@YA?AUwrite_result@?A0x17268360@@HQEBDI@Z 000000018000a0f8 f   libucrt:write.obj
 0001:00009958       ??$common_lseek_nolock@_J@@YA_JH_JH@Z 000000018000a958 f   libucrt:lseek.obj
 0001:00009d00       $$000000                   000000018000ad00     libucrt:log10.obj
 0001:0000a3dc       ??$?RV<lambda_751a882b2c74d4b022dec766aa51a29a>@@AEAV<lambda_628dfdc04ba53c8bfc02c9951375f3f5>@@V<lambda_f6c7be5f7998530c34de24c7437d6b54>@@@?$__crt_seh_guarded_call@H@@QEAAH$$QEAV<lambda_751a882b2c74d4b022dec766aa51a29a>@@AEAV<lambda_628dfdc04ba53c8bfc02c9951375f3f5>@@$$QEAV<lambda_f6c7be5f7998530c34de24c7437d6b54>@@@Z 000000018000b3dc f   libucrt:close.obj
 0001:0000a5d0       _call_matherr              000000018000b5d0 f   libucrt:libm_error.obj
 0001:0000a638       _exception_enabled         000000018000b638 f   libucrt:libm_error.obj
 0001:0000a8b0       _log_special_common        000000018000b8b0 f   libucrt:log_special.obj
 0001:0000a950       $$000000                   000000018000b950     libucrt:fpsr.obj
 0001:0000af40       $$000000                   000000018000bf40     LIBCMT:chkstk.obj
 0001:0000afb0       $$000000                   000000018000bfb0     libvcruntime:memcmp.obj
 0001:0000b090       $$000000                   000000018000c090     LIBCMT:guard_dispatch.obj
 0001:0000b0b0       ?fin$0@?0??dllmain_crt_process_attach@@YAHQEAUHINSTANCE__@@QEAX@Z@4HA 000000018000c0b0 f   LIBCMT:dll_dllmain.obj
 0001:0000b0c7       ?fin$0@?0??dllmain_crt_process_detach@@YAH_N@Z@4HA 000000018000c0c7 f   LIBCMT:dll_dllmain.obj
 0001:0000b0e3       ?filt$0@?0??dllmain_dispatch@@YAHQEAUHINSTANCE__@@KQEAX@Z@4HA 000000018000c0e3 f   LIBCMT:dll_dllmain.obj
 0001:0000b119       __scrt_is_nonwritable_in_current_image$filt$0 000000018000c119 f   LIBCMT:utility.obj
 0001:0000b131       __DestructExceptionObject$filt$0 000000018000c131 f   libvcruntime:ehhelpers.obj
 0001:0000b149       ?fin$0@?0???$?RV<lambda_aa87e3671a710a21b5dc78c0bdf72e11>@@AEAV<lambda_92619d2358a28f41a33ba319515a20b9>@@V<lambda_6992ecaafeb10aed2b74cb1fae11a551>@@@?$__crt_seh_guarded_call@X@@QEAAX$$QEAV<lambda_aa87e3671a710a21b5dc78c0bdf72e11>@@AEAV<lambda_92619d2358a28f41a33ba319515a20b9>@@$$QEAV<lambda_6992ecaafeb10aed2b74cb1fae11a551>@@@Z@4HA 000000018000c149 f   libucrt:per_thread_data.obj
 0001:0000b149       ?fin$0@?0???$?RV<lambda_efdfa57d1f175319df784efa44bb7b81>@@AEAV<lambda_5f0a4c1567f8adc6734073e5d1e1b35c>@@V<lambda_2e8a7d3640ea6ccb4c2413664c2db6fd>@@@?$__crt_seh_guarded_call@X@@QEAAX$$QEAV<lambda_efdfa57d1f175319df784efa44bb7b81>@@AEAV<lambda_5f0a4c1567f8adc6734073e5d1e1b35c>@@$$QEAV<lambda_2e8a7d3640ea6ccb4c2413664c2db6fd>@@@Z@4HA 000000018000c149 f   libucrt:mbctype.obj
 0001:0000b149       ?fin$0@?0???$?RV<lambda_2d41944a1d46af3157314b8a01080d33>@@AEAV<lambda_8f455de75cd7d7f24b4096f044d8b9e6>@@V<lambda_aa500f224e6afead328df44964fe2772>@@@?$__crt_seh_guarded_call@X@@QEAAX$$QEAV<lambda_2d41944a1d46af3157314b8a01080d33>@@AEAV<lambda_8f455de75cd7d7f24b4096f044d8b9e6>@@$$QEAV<lambda_aa500f224e6afead328df44964fe2772>@@@Z@4HA 000000018000c149 f   libucrt:per_thread_data.obj
 0001:0000b149       ?fin$0@?0???$?RV<lambda_d80eeec6fff315bfe5c115232f3240e3>@@AEAV<lambda_6e4b09c48022b2350581041d5f6b0c4c>@@V<lambda_2358e3775559c9db80273638284d5e45>@@@?$__crt_seh_guarded_call@X@@QEAAX$$QEAV<lambda_d80eeec6fff315bfe5c115232f3240e3>@@AEAV<lambda_6e4b09c48022b2350581041d5f6b0c4c>@@$$QEAV<lambda_2358e3775559c9db80273638284d5e45>@@@Z@4HA 000000018000c149 f   libucrt:exit.obj
 0001:0000b149       ?fin$0@?0???$?RV<lambda_f2e299630e499de9f9a165e60fcd3db5>@@AEAV<lambda_2ae9d31cdba2644fcbeaf08da7c24588>@@V<lambda_40d01ff24d0e7b3814fdbdcee8eab3c7>@@@?$__crt_seh_guarded_call@X@@QEAAX$$QEAV<lambda_f2e299630e499de9f9a165e60fcd3db5>@@AEAV<lambda_2ae9d31cdba2644fcbeaf08da7c24588>@@$$QEAV<lambda_40d01ff24d0e7b3814fdbdcee8eab3c7>@@@Z@4HA 000000018000c149 f   libucrt:per_thread_data.obj
 0001:0000b149       ?fin$0@?0???$?RV<lambda_7777bce6b2f8c936911f934f8298dc43>@@AEAV<lambda_f03950bc5685219e0bcd2087efbe011e>@@V<lambda_3883c3dff614d5e0c5f61bb1ac94921c>@@@?$__crt_seh_guarded_call@H@@QEAAH$$QEAV<lambda_7777bce6b2f8c936911f934f8298dc43>@@AEAV<lambda_f03950bc5685219e0bcd2087efbe011e>@@$$QEAV<lambda_3883c3dff614d5e0c5f61bb1ac94921c>@@@Z@4HA 000000018000c149 f   libucrt:onexit.obj
 0001:0000b149       ?fin$0@?0???$?RV<lambda_450d765d439847d4c735a33c368b5fc0>@@AEAV<lambda_44731a7d0e6d81c3e6aa82d741081786>@@V<lambda_601a2a7da3b7a96e9554ac7215c4b07c>@@@?$__crt_seh_guarded_call@P6AXH@Z@@QEAAP6AXH@Z$$QEAV<lambda_450d765d439847d4c735a33c368b5fc0>@@AEAV<lambda_44731a7d0e6d81c3e6aa82d741081786>@@$$QEAV<lambda_601a2a7da3b7a96e9554ac7215c4b07c>@@@Z@4HA 000000018000c149 f   libucrt:signal.obj
 0001:0000b149       ?fin$0@?0???$?RV<lambda_0ae27a3a962d80f24befdcbee591983d>@@AEAV<lambda_8d0ee55de4b1038c4002e0adecdf1839>@@V<lambda_dc504788e8f1664fe9b84e20bfb512f2>@@@?$__crt_seh_guarded_call@X@@QEAAX$$QEAV<lambda_0ae27a3a962d80f24befdcbee591983d>@@AEAV<lambda_8d0ee55de4b1038c4002e0adecdf1839>@@$$QEAV<lambda_dc504788e8f1664fe9b84e20bfb512f2>@@@Z@4HA 000000018000c149 f   libucrt:per_thread_data.obj
 0001:0000b163       ?filt$0@?0???R<lambda_6e4b09c48022b2350581041d5f6b0c4c>@@QEBA@XZ@4HA 000000018000c163 f   libucrt:exit.obj
 0001:0000b17e       ?fin$0@?0???$?RV<lambda_410d79af7f07d98d83a3f525b3859a53>@@AEAV<lambda_3e16ef9562a7dcce91392c22ab16ea36>@@V<lambda_38119f0e861e05405d8a144b9b982f0a>@@@?$__crt_seh_guarded_call@X@@QEAAX$$QEAV<lambda_410d79af7f07d98d83a3f525b3859a53>@@AEAV<lambda_3e16ef9562a7dcce91392c22ab16ea36>@@$$QEAV<lambda_38119f0e861e05405d8a144b9b982f0a>@@@Z@4HA 000000018000c17e f   libucrt:wsetlocale.obj
 0001:0000b198       ?fin$0@?0??update_thread_multibyte_data_internal@@YAPEAU__crt_multibyte_data@@QEAU__acrt_ptd@@QEAPEAU1@@Z@4HA 000000018000c198 f   libucrt:mbctype.obj
 0001:0000b1b1       __acrt_lowio_ensure_fh_exists$fin$0 000000018000c1b1 f   libucrt:osfinfo.obj
 0001:0000b1b1       __acrt_initialize_lowio$fin$0 000000018000c1b1 f   libucrt:ioinit.obj
 0001:0000b1ca       _query_new_handler$fin$0   000000018000c1ca f   libucrt:new_handler.obj
 0001:0000b1e0       raise$fin$0                000000018000c1e0 f   libucrt:signal.obj
 0001:0000b201       ?fin$0@?0???$?RV<lambda_842d9ff0dc9ef11c61343bbaebe7f885>@@AEAV<lambda_c5860995281e5c4ce005b3de8f5874ee>@@V<lambda_d90129c13df834fdcbf8d2b88dafcf2d>@@@?$__crt_seh_guarded_call@X@@QEAAX$$QEAV<lambda_842d9ff0dc9ef11c61343bbaebe7f885>@@AEAV<lambda_c5860995281e5c4ce005b3de8f5874ee>@@$$QEAV<lambda_d90129c13df834fdcbf8d2b88dafcf2d>@@@Z@4HA 000000018000c201 f   libucrt:fflush.obj
 0001:0000b21c       ?fin$0@?0???$?RV<lambda_886d6c58226a84441f68b9f2b8217b83>@@AEAV<lambda_ab61a845afdef5b7c387490eaf3616ee>@@V<lambda_f7f22ab5edc0698d5f6905b0d3f44752>@@@?$__crt_seh_guarded_call@X@@QEAAX$$QEAV<lambda_886d6c58226a84441f68b9f2b8217b83>@@AEAV<lambda_ab61a845afdef5b7c387490eaf3616ee>@@$$QEAV<lambda_f7f22ab5edc0698d5f6905b0d3f44752>@@@Z@4HA 000000018000c21c f   libucrt:fflush.obj
 0001:0000b239       __acrt_update_thread_locale_data$fin$0 000000018000c239 f   libucrt:locale_refcounting.obj
 0001:0000b252       ?fin$0@?0???$?RV<lambda_751a882b2c74d4b022dec766aa51a29a>@@AEAV<lambda_628dfdc04ba53c8bfc02c9951375f3f5>@@V<lambda_f6c7be5f7998530c34de24c7437d6b54>@@@?$__crt_seh_guarded_call@H@@QEAAH$$QEAV<lambda_751a882b2c74d4b022dec766aa51a29a>@@AEAV<lambda_628dfdc04ba53c8bfc02c9951375f3f5>@@$$QEAV<lambda_f6c7be5f7998530c34de24c7437d6b54>@@@Z@4HA 000000018000c252 f   libucrt:close.obj
 0001:0000b252       ?fin$0@?0???$?RV<lambda_a37b2b86f63e897a80ea819b0eb08c01>@@AEAV<lambda_38ce7e780aa69e748d6df282ebc68efe>@@V<lambda_99fb1378e971ab6e7edea83e3a7a83a2>@@@?$__crt_seh_guarded_call@H@@QEAAH$$QEAV<lambda_a37b2b86f63e897a80ea819b0eb08c01>@@AEAV<lambda_38ce7e780aa69e748d6df282ebc68efe>@@$$QEAV<lambda_99fb1378e971ab6e7edea83e3a7a83a2>@@@Z@4HA 000000018000c252 f   libucrt:commit.obj
 0001:0000b26c       _write$fin$0               000000018000c26c f   libucrt:write.obj
 0001:0000b283       _fcloseall$fin$0           000000018000c283 f   libucrt:closeall.obj
 0001:0000b29c       fclose$fin$0               000000018000c29c f   libucrt:fclose.obj
 0001:0000b2b4       _ctrlfp$filt$0             000000018000c2b4 f   libucrt:fpctrl.obj
 0001:0000b2e0       _IsNonwritableInCurrentImage$filt$0 000000018000c2e0 f   LIBCMT:pesect.obj
 0002:00000338       GS_ExceptionPointers       000000018000d338     LIBCMT:gs_report.obj
 0002:00000350       ?tokenTable@@3QBQEBDB      000000018000d350     libvcruntime:undname.obj
 0002:000003d0       ?nameTable@@3QBQEBDB       000000018000d3d0     libvcruntime:undname.obj
 0002:00000660       ?rttiTable@@3QBQEBDB       000000018000d660     libvcruntime:undname.obj
 0002:00000d18       ?module_names@?A0xa3b92138@@3QBQEB_WB 000000018000dd18     libvcruntime:winapi_downlevel.obj
 0002:00000de8       ?candidate_modules@?1??try_get_FlsAlloc@@YAP6AKP6AXPEAX@Z@ZXZ@4QBW4module_id@?A0xa3b92138@@B 000000018000dde8     libvcruntime:winapi_downlevel.obj
 0002:00000e00       ?candidate_modules@?1??try_get_FlsFree@@YAP6AHK@ZXZ@4QBW4module_id@?A0xa3b92138@@B 000000018000de00     libvcruntime:winapi_downlevel.obj
 0002:00000e10       ?candidate_modules@?1??try_get_FlsGetValue@@YAP6APEAXK@ZXZ@4QBW4module_id@?A0xa3b92138@@B 000000018000de10     libvcruntime:winapi_downlevel.obj
 0002:00000e28       ?candidate_modules@?1??try_get_FlsSetValue@@YAP6AHKPEAX@ZXZ@4QBW4module_id@?A0xa3b92138@@B 000000018000de28     libvcruntime:winapi_downlevel.obj
 0002:00000e40       ?candidate_modules@?1??try_get_InitializeCriticalSectionEx@@YAP6AHPEAU_RTL_CRITICAL_SECTION@@KK@ZXZ@4QBW4module_id@?A0xa3b92138@@B 000000018000de40     libvcruntime:winapi_downlevel.obj
 0002:00000f70       __acrt_initializers        000000018000df70     libucrt:initialization.obj
 0002:00001070       ?errtable@@3QBUerrentry@?A0x31fdb9ec@@B 000000018000e070     libucrt:errno.obj
 0002:00001860       ?_mb_locale_names@@3QBQEB_WB 000000018000e860     libucrt:mbctype.obj
 0002:000018c0       ?module_names@?A0x391cf84c@@3QBQEB_WB 000000018000e8c0     libucrt:winapi_thunks.obj
 0002:00001e68       ?candidate_modules@?1??try_get_AreFileApisANSI@@YAP6AHXZXZ@4QBW4module_id@?A0x391cf84c@@B 000000018000ee68     libucrt:winapi_thunks.obj
 0002:00001e80       ?candidate_modules@?1??try_get_FlsAlloc@@YAP6AKP6AXPEAX@Z@ZXZ@4QBW4module_id@?A0x391cf84c@@B 000000018000ee80     libucrt:winapi_thunks.obj
 0002:00001e98       ?candidate_modules@?1??try_get_FlsFree@@YAP6AHK@ZXZ@4QBW4module_id@?A0x391cf84c@@B 000000018000ee98     libucrt:winapi_thunks.obj
 0002:00001ea8       ?candidate_modules@?1??try_get_FlsGetValue@@YAP6APEAXK@ZXZ@4QBW4module_id@?A0x391cf84c@@B 000000018000eea8     libucrt:winapi_thunks.obj
 0002:00001ec0       ?candidate_modules@?1??try_get_FlsSetValue@@YAP6AHKPEAX@ZXZ@4QBW4module_id@?A0x391cf84c@@B 000000018000eec0     libucrt:winapi_thunks.obj
 0002:00001ed8       ?candidate_modules@?1??try_get_InitializeCriticalSectionEx@@YAP6AHPEAU_RTL_CRITICAL_SECTION@@KK@ZXZ@4QBW4module_id@?A0x391cf84c@@B 000000018000eed8     libucrt:winapi_thunks.obj
 0002:00001f00       ?candidate_modules@?1??try_get_LCMapStringEx@@YAP6AHPEB_WK0HPEA_WHPEAU_nlsversioninfo@@PEAX_J@ZXZ@4QBW4module_id@?A0x391cf84c@@B 000000018000ef00     libucrt:winapi_thunks.obj
 0002:00001f18       ?candidate_modules@?1??try_get_LocaleNameToLCID@@YAP6AKPEB_WK@ZXZ@4QBW4module_id@?A0x391cf84c@@B 000000018000ef18     libucrt:winapi_thunks.obj
 0002:00001f34       ?candidate_modules@?1??try_get_AppPolicyGetProcessTerminationMethod@@YAP6AJPEAXPEAW4AppPolicyProcessTerminationMethod@@@ZXZ@4QBW4module_id@?A0x391cf84c@@B 000000018000ef34     libucrt:winapi_thunks.obj
 0002:00002570       ?LcidToLocaleNameTable@?A0x881e4c05@@3QBULcidToLocaleName@1@B 000000018000f570     libucrt:lcidtoname_downlevel.obj
 0002:00003fd0       ?LocaleNameToIndexTable@?A0x881e4c05@@3QBULocaleNameIndex@1@B 0000000180010fd0     libucrt:lcidtoname_downlevel.obj
 0002:00005870       __real_ninf                0000000180012870     libucrt:log10.obj
 0002:00005880       __real_inf                 0000000180012880     libucrt:log10.obj
 0002:00005890       __real_neg_qnan            0000000180012890     libucrt:log10.obj
 0002:000058a0       __real_qnanbit             00000001800128a0     libucrt:log10.obj
 0002:000058b0       __int_1023                 00000001800128b0     libucrt:log10.obj
 0002:000058c0       __mask_001                 00000001800128c0     libucrt:log10.obj
 0002:000058d0       __mask_mant                00000001800128d0     libucrt:log10.obj
 0002:000058e0       __mask_mant_top8           00000001800128e0     libucrt:log10.obj
 0002:000058f0       __mask_mant9               00000001800128f0     libucrt:log10.obj
 0002:00005900       __real_log10_e             0000000180012900     libucrt:log10.obj
 0002:00005910       __real_log10_e_lead        0000000180012910     libucrt:log10.obj
 0002:00005920       __real_log10_e_tail        0000000180012920     libucrt:log10.obj
 0002:00005930       __real_log10_2_lead        0000000180012930     libucrt:log10.obj
 0002:00005940       __real_log10_2_tail        0000000180012940     libucrt:log10.obj
 0002:00005950       __real_two                 0000000180012950     libucrt:log10.obj
 0002:00005960       __real_one                 0000000180012960     libucrt:log10.obj
 0002:00005970       __real_half                0000000180012970     libucrt:log10.obj
 0002:00005980       __mask_100                 0000000180012980     libucrt:log10.obj
 0002:00005990       __real_1_over_512          0000000180012990     libucrt:log10.obj
 0002:000059a0       __real_1_over_2            00000001800129a0     libucrt:log10.obj
 0002:000059b0       __real_1_over_3            00000001800129b0     libucrt:log10.obj
 0002:000059c0       __real_1_over_4            00000001800129c0     libucrt:log10.obj
 0002:000059d0       __real_1_over_5            00000001800129d0     libucrt:log10.obj
 0002:000059e0       __real_1_over_6            00000001800129e0     libucrt:log10.obj
 0002:000059f0       __real_neg_1023            00000001800129f0     libucrt:log10.obj
 0002:00005a00       __mask_2045                0000000180012a00     libucrt:log10.obj
 0002:00005a10       __real_threshold           0000000180012a10     libucrt:log10.obj
 0002:00005a20       __real_near_one_lt         0000000180012a20     libucrt:log10.obj
 0002:00005a30       __real_near_one_gt         0000000180012a30     libucrt:log10.obj
 0002:00005a40       __real_min_norm            0000000180012a40     libucrt:log10.obj
 0002:00005a50       __real_notsign             0000000180012a50     libucrt:log10.obj
 0002:00005a60       __real_ca1                 0000000180012a60     libucrt:log10.obj
 0002:00005a70       __real_ca2                 0000000180012a70     libucrt:log10.obj
 0002:00005a80       __real_ca3                 0000000180012a80     libucrt:log10.obj
 0002:00005a90       __real_ca4                 0000000180012a90     libucrt:log10.obj
 0002:00005aa0       __mask_lower               0000000180012aa0     libucrt:log10.obj
 0002:00005ab0       __flag_x_zero              0000000180012ab0     libucrt:log10.obj
 0002:00005ab4       __flag_x_neg               0000000180012ab4     libucrt:log10.obj
 0002:00005ab8       __flag_x_nan               0000000180012ab8     libucrt:log10.obj
 0002:00007310       __real@433fffffffffffff    0000000180014310     libucrt:fpsr.obj
 0002:00007318       __real@c33fffffffffffff    0000000180014318     libucrt:fpsr.obj
 0002:00007900       $unwind$?CreatePipe@@YAXAEBV?$FunctionCallbackInfo@VValue@v8@@@v8@@@Z 0000000180014900     module.obj
 0002:0000791c       $chain$3$?CreatePipe@@YAXAEBV?$FunctionCallbackInfo@VValue@v8@@@v8@@@Z 000000018001491c     module.obj
 0002:0000793c       $chain$4$?CreatePipe@@YAXAEBV?$FunctionCallbackInfo@VValue@v8@@@v8@@@Z 000000018001493c     module.obj
 0002:0000794c       $unwind$?Init@@YAXV?$Local@VObject@v8@@@v8@@@Z 000000018001494c     module.obj
 0002:0000794c       $unwind$capture_previous_context 000000018001494c     LIBCMT:gs_report.obj
 0002:00007958       $xdatasym                  0000000180014958     LIBCMT:amdsecgs.obj
 0002:0000795c       $unwind$?dllmain_crt_process_attach@@YAHQEAUHINSTANCE__@@QEAX@Z 000000018001495c     LIBCMT:dll_dllmain.obj
 0002:00007998       $unwind$?fin$0@?0???$?RV<lambda_a37b2b86f63e897a80ea819b0eb08c01>@@AEAV<lambda_38ce7e780aa69e748d6df282ebc68efe>@@V<lambda_99fb1378e971ab6e7edea83e3a7a83a2>@@@?$__crt_seh_guarded_call@H@@QEAAH$$QEAV<lambda_a37b2b86f63e897a80ea819b0eb08c01>@@AEAV<lambda_38ce7e780aa69e748d6df282ebc68efe>@@$$QEAV<lambda_99fb1378e971ab6e7edea83e3a7a83a2>@@@Z@4HA 0000000180014998     libucrt:commit.obj
 0002:00007998       $unwind$_write$fin$0       0000000180014998     libucrt:write.obj
 0002:00007998       $unwind$?fin$0@?0???$?RV<lambda_410d79af7f07d98d83a3f525b3859a53>@@AEAV<lambda_3e16ef9562a7dcce91392c22ab16ea36>@@V<lambda_38119f0e861e05405d8a144b9b982f0a>@@@?$__crt_seh_guarded_call@X@@QEAAX$$QEAV<lambda_410d79af7f07d98d83a3f525b3859a53>@@AEAV<lambda_3e16ef9562a7dcce91392c22ab16ea36>@@$$QEAV<lambda_38119f0e861e05405d8a144b9b982f0a>@@@Z@4HA 0000000180014998     libucrt:wsetlocale.obj
 0002:00007998       $unwind$?fin$0@?0???$?RV<lambda_751a882b2c74d4b022dec766aa51a29a>@@AEAV<lambda_628dfdc04ba53c8bfc02c9951375f3f5>@@V<lambda_f6c7be5f7998530c34de24c7437d6b54>@@@?$__crt_seh_guarded_call@H@@QEAAH$$QEAV<lambda_751a882b2c74d4b022dec766aa51a29a>@@AEAV<lambda_628dfdc04ba53c8bfc02c9951375f3f5>@@$$QEAV<lambda_f6c7be5f7998530c34de24c7437d6b54>@@@Z@4HA 0000000180014998     libucrt:close.obj
 0002:00007998       $unwind$?fin$0@?0??dllmain_crt_process_detach@@YAH_N@Z@4HA 0000000180014998     LIBCMT:dll_dllmain.obj
 0002:00007998       $unwind$?fin$0@?0???$?RV<lambda_2d41944a1d46af3157314b8a01080d33>@@AEAV<lambda_8f455de75cd7d7f24b4096f044d8b9e6>@@V<lambda_aa500f224e6afead328df44964fe2772>@@@?$__crt_seh_guarded_call@X@@QEAAX$$QEAV<lambda_2d41944a1d46af3157314b8a01080d33>@@AEAV<lambda_8f455de75cd7d7f24b4096f044d8b9e6>@@$$QEAV<lambda_aa500f224e6afead328df44964fe2772>@@@Z@4HA 0000000180014998     libucrt:per_thread_data.obj
 0002:00007998       $unwind$?fin$0@?0???$?RV<lambda_0ae27a3a962d80f24befdcbee591983d>@@AEAV<lambda_8d0ee55de4b1038c4002e0adecdf1839>@@V<lambda_dc504788e8f1664fe9b84e20bfb512f2>@@@?$__crt_seh_guarded_call@X@@QEAAX$$QEAV<lambda_0ae27a3a962d80f24befdcbee591983d>@@AEAV<lambda_8d0ee55de4b1038c4002e0adecdf1839>@@$$QEAV<lambda_dc504788e8f1664fe9b84e20bfb512f2>@@@Z@4HA 0000000180014998     libucrt:per_thread_data.obj
 0002:00007998       $unwind$__acrt_initialize_lowio$fin$0 0000000180014998     libucrt:ioinit.obj
 0002:00007998       $unwind$__acrt_lowio_ensure_fh_exists$fin$0 0000000180014998     libucrt:osfinfo.obj
 0002:00007998       $unwind$_query_new_handler$fin$0 0000000180014998     libucrt:new_handler.obj
 0002:00007998       $unwind$?fin$0@?0???$?RV<lambda_f2e299630e499de9f9a165e60fcd3db5>@@AEAV<lambda_2ae9d31cdba2644fcbeaf08da7c24588>@@V<lambda_40d01ff24d0e7b3814fdbdcee8eab3c7>@@@?$__crt_seh_guarded_call@X@@QEAAX$$QEAV<lambda_f2e299630e499de9f9a165e60fcd3db5>@@AEAV<lambda_2ae9d31cdba2644fcbeaf08da7c24588>@@$$QEAV<lambda_40d01ff24d0e7b3814fdbdcee8eab3c7>@@@Z@4HA 0000000180014998     libucrt:per_thread_data.obj
 0002:00007998       $unwind$?fin$0@?0???$?RV<lambda_7777bce6b2f8c936911f934f8298dc43>@@AEAV<lambda_f03950bc5685219e0bcd2087efbe011e>@@V<lambda_3883c3dff614d5e0c5f61bb1ac94921c>@@@?$__crt_seh_guarded_call@H@@QEAAH$$QEAV<lambda_7777bce6b2f8c936911f934f8298dc43>@@AEAV<lambda_f03950bc5685219e0bcd2087efbe011e>@@$$QEAV<lambda_3883c3dff614d5e0c5f61bb1ac94921c>@@@Z@4HA 0000000180014998     libucrt:onexit.obj
 0002:00007998       $unwind$?fin$0@?0???$?RV<lambda_aa87e3671a710a21b5dc78c0bdf72e11>@@AEAV<lambda_92619d2358a28f41a33ba319515a20b9>@@V<lambda_6992ecaafeb10aed2b74cb1fae11a551>@@@?$__crt_seh_guarded_call@X@@QEAAX$$QEAV<lambda_aa87e3671a710a21b5dc78c0bdf72e11>@@AEAV<lambda_92619d2358a28f41a33ba319515a20b9>@@$$QEAV<lambda_6992ecaafeb10aed2b74cb1fae11a551>@@@Z@4HA 0000000180014998     libucrt:per_thread_data.obj
 0002:00007998       $unwind$_fcloseall$fin$0   0000000180014998     libucrt:closeall.obj
 0002:00007998       $unwind$__DestructExceptionObject$filt$0 0000000180014998     libvcruntime:ehhelpers.obj
 0002:00007998       $unwind$?fin$0@?0???$?RV<lambda_efdfa57d1f175319df784efa44bb7b81>@@AEAV<lambda_5f0a4c1567f8adc6734073e5d1e1b35c>@@V<lambda_2e8a7d3640ea6ccb4c2413664c2db6fd>@@@?$__crt_seh_guarded_call@X@@QEAAX$$QEAV<lambda_efdfa57d1f175319df784efa44bb7b81>@@AEAV<lambda_5f0a4c1567f8adc6734073e5d1e1b35c>@@$$QEAV<lambda_2e8a7d3640ea6ccb4c2413664c2db6fd>@@@Z@4HA 0000000180014998     libucrt:mbctype.obj
 0002:00007998       $unwind$raise$fin$0        0000000180014998     libucrt:signal.obj
 0002:00007998       $unwind$?fin$0@?0???$?RV<lambda_450d765d439847d4c735a33c368b5fc0>@@AEAV<lambda_44731a7d0e6d81c3e6aa82d741081786>@@V<lambda_601a2a7da3b7a96e9554ac7215c4b07c>@@@?$__crt_seh_guarded_call@P6AXH@Z@@QEAAP6AXH@Z$$QEAV<lambda_450d765d439847d4c735a33c368b5fc0>@@AEAV<lambda_44731a7d0e6d81c3e6aa82d741081786>@@$$QEAV<lambda_601a2a7da3b7a96e9554ac7215c4b07c>@@@Z@4HA 0000000180014998     libucrt:signal.obj
 0002:00007998       $unwind$?fin$0@?0???$?RV<lambda_d80eeec6fff315bfe5c115232f3240e3>@@AEAV<lambda_6e4b09c48022b2350581041d5f6b0c4c>@@V<lambda_2358e3775559c9db80273638284d5e45>@@@?$__crt_seh_guarded_call@X@@QEAAX$$QEAV<lambda_d80eeec6fff315bfe5c115232f3240e3>@@AEAV<lambda_6e4b09c48022b2350581041d5f6b0c4c>@@$$QEAV<lambda_2358e3775559c9db80273638284d5e45>@@@Z@4HA 0000000180014998     libucrt:exit.obj
 0002:00007998       $unwind$?fin$0@?0??dllmain_crt_process_attach@@YAHQEAUHINSTANCE__@@QEAX@Z@4HA 0000000180014998     LIBCMT:dll_dllmain.obj
 0002:00007998       $unwind$?filt$0@?0???R<lambda_6e4b09c48022b2350581041d5f6b0c4c>@@QEBA@XZ@4HA 0000000180014998     libucrt:exit.obj
 0002:00007998       $unwind$fclose$fin$0       0000000180014998     libucrt:fclose.obj
 0002:00007998       $unwind$_ctrlfp$filt$0     0000000180014998     libucrt:fpctrl.obj
 0002:00007998       $unwind$__acrt_update_thread_locale_data$fin$0 0000000180014998     libucrt:locale_refcounting.obj
 0002:00007998       $unwind$?fin$0@?0???$?RV<lambda_842d9ff0dc9ef11c61343bbaebe7f885>@@AEAV<lambda_c5860995281e5c4ce005b3de8f5874ee>@@V<lambda_d90129c13df834fdcbf8d2b88dafcf2d>@@@?$__crt_seh_guarded_call@X@@QEAAX$$QEAV<lambda_842d9ff0dc9ef11c61343bbaebe7f885>@@AEAV<lambda_c5860995281e5c4ce005b3de8f5874ee>@@$$QEAV<lambda_d90129c13df834fdcbf8d2b88dafcf2d>@@@Z@4HA 0000000180014998     libucrt:fflush.obj
 0002:00007998       $unwind$?fin$0@?0???$?RV<lambda_886d6c58226a84441f68b9f2b8217b83>@@AEAV<lambda_ab61a845afdef5b7c387490eaf3616ee>@@V<lambda_f7f22ab5edc0698d5f6905b0d3f44752>@@@?$__crt_seh_guarded_call@X@@QEAAX$$QEAV<lambda_886d6c58226a84441f68b9f2b8217b83>@@AEAV<lambda_ab61a845afdef5b7c387490eaf3616ee>@@$$QEAV<lambda_f7f22ab5edc0698d5f6905b0d3f44752>@@@Z@4HA 0000000180014998     libucrt:fflush.obj
 0002:00007998       $unwind$_IsNonwritableInCurrentImage$filt$0 0000000180014998     LIBCMT:pesect.obj
 0002:00007998       $unwind$?fin$0@?0??update_thread_multibyte_data_internal@@YAPEAU__crt_multibyte_data@@QEAU__acrt_ptd@@QEAPEAU1@@Z@4HA 0000000180014998     libucrt:mbctype.obj
 0002:000079a0       $unwind$?dllmain_crt_process_detach@@YAH_N@Z 00000001800149a0     LIBCMT:dll_dllmain.obj
 0002:000079d8       $unwind$?initialize_multibyte@@YAHXZ 00000001800149d8     libucrt:multibyte_initializer.obj
 0002:000079d8       $unwind$uninitialize_environment 00000001800149d8     libucrt:initialization.obj
 0002:000079d8       $unwind$__acrt_release_locale_ref 00000001800149d8     libucrt:locale_refcounting.obj
 0002:000079d8       $unwind$initialize_c       00000001800149d8     libucrt:initialization.obj
 0002:000079d8       $unwind$__vcrt_initialize_ptd 00000001800149d8     libvcruntime:per_thread_data.obj
 0002:000079d8       $unwind$__vcrt_uninitialize_ptd 00000001800149d8     libvcruntime:per_thread_data.obj
 0002:000079d8       $unwind$__acrt_thread_detach 00000001800149d8     libucrt:initialization.obj
 0002:000079d8       $unwind$__acrt_thread_attach 00000001800149d8     libucrt:initialization.obj
 0002:000079d8       $unwind$__acrt_uninitialize_critical 00000001800149d8     libucrt:initialization.obj
 0002:000079d8       $unwind$__acrt_uninitialize 00000001800149d8     libucrt:initialization.obj
 0002:000079d8       $unwind$_get_osfhandle     00000001800149d8     libucrt:osfinfo.obj
 0002:000079d8       $unwind$__report_rangecheckfailure 00000001800149d8     LIBCMT:gs_report.obj
 0002:000079d8       $unwind$__pctype_func      00000001800149d8     libucrt:ctype.obj
 0002:000079d8       $unwind$__vcrt_freefls     00000001800149d8     libvcruntime:per_thread_data.obj
 0002:000079d8       $unwind$_fileno            00000001800149d8     libucrt:fileno.obj
 0002:000079d8       $unwind$__vcrt_initialize  00000001800149d8     libvcruntime:initialization.obj
 0002:000079d8       $unwind$__acrt_initialize_heap 00000001800149d8     libucrt:heap_handle.obj
 0002:000079d8       $unwind$__vcrt_uninitialize 00000001800149d8     libvcruntime:initialization.obj
 0002:000079d8       $unwind$__vcrt_uninitialize_critical 00000001800149d8     libvcruntime:initialization.obj
 0002:000079d8       $unwind$__acrt_AreFileApisANSI 00000001800149d8     libucrt:winapi_thunks.obj
 0002:000079d8       $unwind$__scrt_dllmain_before_initialize_c 00000001800149d8     LIBCMT:utility.obj
 0002:000079d8       $unwind$__vcrt_thread_attach 00000001800149d8     libvcruntime:initialization.obj
 0002:000079d8       $unwind$_msize_base        00000001800149d8     libucrt:msize.obj
 0002:000079d8       $unwind$abort              00000001800149d8     libucrt:abort.obj
 0002:000079d8       $unwind$__scrt_dllmain_after_initialize_c 00000001800149d8     LIBCMT:utility.obj
 0002:000079d8       $unwind$_invoke_watson     00000001800149d8     libucrt:invalid_parameter.obj
 0002:000079d8       $unwind$??$uninitialize_environment_internal@_W@@YAXAEAPEAPEA_W@Z 00000001800149d8     libucrt:environment_initialization.obj
 0002:000079d8       $unwind$__acrt_DownlevelLocaleNameToLCID 00000001800149d8     libucrt:lcidtoname_downlevel.obj
 0002:000079d8       $unwind$__scrt_dllmain_uninitialize_c 00000001800149d8     LIBCMT:utility.obj
 0002:000079d8       $unwind$__acrt_update_thread_multibyte_data 00000001800149d8     libucrt:mbctype.obj
 0002:000079d8       $unwind$_errno             00000001800149d8     libucrt:errno.obj
 0002:000079d8       $unwind$__acrt_initialize_multibyte 00000001800149d8     libucrt:mbctype.obj
 0002:000079d8       $unwind$__scrt_dllmain_uninitialize_critical 00000001800149d8     LIBCMT:utility.obj
 0002:000079d8       $unwind$__acrt_initialize_command_line 00000001800149d8     libucrt:argv_data.obj
 0002:000079d8       $unwind$??$uninitialize_environment_internal@D@@YAXAEAPEAPEAD@Z 00000001800149d8     libucrt:environment_initialization.obj
 0002:000079d8       $unwind$__doserrno         00000001800149d8     libucrt:errno.obj
 0002:000079d8       $unwind$__scrt_dllmain_crt_thread_attach 00000001800149d8     LIBCMT:utility.obj
 0002:000079d8       $unwind$_isatty            00000001800149d8     libucrt:isatty.obj
 0002:000079d8       $unwind$__scrt_acquire_startup_lock 00000001800149d8     LIBCMT:utility.obj
 0002:000079d8       $unwind$__dcrt_uninitialize_environments_nolock 00000001800149d8     libucrt:environment_initialization.obj
 0002:000079d8       $unwind$__scrt_initialize_default_local_stdio_options 00000001800149d8     LIBCMT:default_local_stdio_options.obj
 0002:000079d8       $unwind$__dcrt_terminate_console_output 00000001800149d8     libucrt:initcon.obj
 0002:000079d8       $unwind$?dllmain_crt_dispatch@@YAHQEAUHINSTANCE__@@KQEAX@Z 00000001800149d8     LIBCMT:dll_dllmain.obj
 0002:000079d8       $unwind$__vcrt_thread_detach 00000001800149d8     libvcruntime:initialization.obj
 0002:000079d8       $unwind$__GSHandlerCheck   00000001800149d8     LIBCMT:gshandler.obj
 0002:000079d8       $unwind$_set_errno_from_matherr 00000001800149d8     libucrt:fpexcept.obj
 0002:000079d8       $unwind$_statfp            00000001800149d8     libucrt:fpctrl.obj
 0002:000079d8       $unwind$__acrt_initialize_ptd 00000001800149d8     libucrt:per_thread_data.obj
 0002:000079d8       $unwind$__acrt_uninitialize_ptd 00000001800149d8     libucrt:per_thread_data.obj
 0002:000079d8       $unwind$__scrt_dllmain_crt_thread_detach 00000001800149d8     LIBCMT:utility.obj
 0002:000079d8       $unwind$uninitialize_allocated_io_buffers 00000001800149d8     libucrt:initialization.obj
 0002:000079e0       $unwind$?dllmain_dispatch@@YAHQEAUHINSTANCE__@@KQEAX@Z 00000001800149e0     LIBCMT:dll_dllmain.obj
 0002:00007a08       $unwind$?filt$0@?0??dllmain_dispatch@@YAHQEAUHINSTANCE__@@KQEAX@Z@4HA 0000000180014a08     LIBCMT:dll_dllmain.obj
 0002:00007a10       $unwind$??$common_lseek_nolock@_J@@YA_JH_JH@Z 0000000180014a10     libucrt:lseek.obj
 0002:00007a10       $unwind$__vcrt_getptd_noexit 0000000180014a10     libvcruntime:per_thread_data.obj
 0002:00007a10       $unwind$_DllMainCRTStartup 0000000180014a10     LIBCMT:dll_dllmain.obj
 0002:00007a10       $unwind$__acrt_getptd_noexit 0000000180014a10     libucrt:per_thread_data.obj
 0002:00007a10       $unwind$?free_crt_array_internal@@YAXQEAPEBX_K@Z 0000000180014a10     libucrt:inittime.obj
 0002:00007a10       $unwind$__acrt_InitializeCriticalSectionEx 0000000180014a10     libucrt:winapi_thunks.obj
 0002:00007a10       $unwind$__acrt_getptd      0000000180014a10     libucrt:per_thread_data.obj
 0002:00007a10       $unwind$__vcrt_InitializeCriticalSectionEx 0000000180014a10     libvcruntime:winapi_downlevel.obj
 0002:00007a10       $unwind$__acrt_execute_initializers 0000000180014a10     libucrt:shared_initialization.obj
 0002:00007a10       $unwind$??0_LocaleUpdate@@QEAA@QEAU__crt_locale_pointers@@@Z 0000000180014a10     libucrt:stricmp.obj
 0002:00007a10       $unwind$__acrt_stdio_flush_nolock 0000000180014a10     libucrt:fflush.obj
 0002:00007a10       $unwind$_exception_enabled 0000000180014a10     libucrt:libm_error.obj
 0002:00007a20       $unwind$__report_securityfailure 0000000180014a20     LIBCMT:gs_report.obj
 0002:00007a28       $unwind$__report_gsfailure 0000000180014a28     LIBCMT:gs_report.obj
 0002:00007a30       $unwind$capture_current_context 0000000180014a30     LIBCMT:gs_report.obj
 0002:00007a3c       $unwind$_calloc_base       0000000180014a3c     libucrt:calloc_base.obj
 0002:00007a3c       $unwind$__acrt_stdio_free_buffer_nolock 0000000180014a3c     libucrt:_freebuf.obj
 0002:00007a3c       $unwind$__acrt_uninitialize_locks 0000000180014a3c     libucrt:locks.obj
 0002:00007a3c       $unwind$_callnewh          0000000180014a3c     libucrt:new_handler.obj
 0002:00007a3c       $unwind$__acrt_freeptd     0000000180014a3c     libucrt:per_thread_data.obj
 0002:00007a3c       $unwind$__acrt_allocate_buffer_for_argv 0000000180014a3c     libucrt:argv_parsing.obj
 0002:00007a3c       $unwind$_fflush_nolock     0000000180014a3c     libucrt:fflush.obj
 0002:00007a3c       $unwind$_set_statfp        0000000180014a3c     libucrt:fpctrl.obj
 0002:00007a3c       $unwind$__vcrt_FlsFree     0000000180014a3c     libvcruntime:winapi_downlevel.obj
 0002:00007a3c       $unwind$__acrt_initialize_locks 0000000180014a3c     libucrt:locks.obj
 0002:00007a3c       $unwind$__acrt_uninitialize_stdio 0000000180014a3c     libucrt:_file.obj
 0002:00007a3c       $unwind$__acrt_uninitialize_winapi_thunks 0000000180014a3c     libucrt:winapi_thunks.obj
 0002:00007a3c       $unwind$_malloc_base       0000000180014a3c     libucrt:malloc_base.obj
 0002:00007a3c       $unwind$__vcrt_FlsAlloc    0000000180014a3c     libvcruntime:winapi_downlevel.obj
 0002:00007a3c       $unwind$__acrt_FlsAlloc    0000000180014a3c     libucrt:winapi_thunks.obj
 0002:00007a3c       $unwind$strcpy_s           0000000180014a3c     libucrt:strcpy_s.obj
 0002:00007a3c       $unwind$__acrt_update_locale_info 0000000180014a3c     libucrt:locale_update.obj
 0002:00007a3c       $unwind$__acrt_FlsFree     0000000180014a3c     libucrt:winapi_thunks.obj
 0002:00007a3c       $unwind$__vcrt_uninitialize_locks 0000000180014a3c     libvcruntime:locks.obj
 0002:00007a3c       $unwind$__acrt_update_multibyte_info 0000000180014a3c     libucrt:locale_update.obj
 0002:00007a3c       $unwind$__acrt_FlsGetValue 0000000180014a3c     libucrt:winapi_thunks.obj
 0002:00007a3c       $unwind$__vcrt_initialize_locks 0000000180014a3c     libvcruntime:locks.obj
 0002:00007a3c       $unwind$_clrfp             0000000180014a3c     libucrt:fpctrl.obj
 0002:00007a3c       $unwind$__raise_securityfailure 0000000180014a3c     LIBCMT:gs_report.obj
 0002:00007a3c       $unwind$?try_cor_exit_process@@YAXI@Z 0000000180014a3c     libucrt:exit.obj
 0002:00007a3c       $unwind$__vcrt_freeptd     0000000180014a3c     libvcruntime:per_thread_data.obj
 0002:00007a3c       $unwind$__scrt_release_startup_lock 0000000180014a3c     LIBCMT:utility.obj
 0002:00007a3c       $unwind$__acrt_getptd_head 0000000180014a3c     libucrt:per_thread_data.obj
 0002:00007a3c       $unwind$__scrt_uninitialize_crt 0000000180014a3c     LIBCMT:utility.obj
 0002:00007a3c       $unwind$?exit_or_terminate_process@@YAXI@Z 0000000180014a3c     libucrt:exit.obj
 0002:00007a3c       $unwind$__scrt_initialize_crt 0000000180014a3c     LIBCMT:utility.obj
 0002:00007a3c       $unwind$__acrt_get_process_end_policy 0000000180014a3c     libucrt:win_policies.obj
 0002:00007a3c       $unwind$__vcrt_FlsGetValue 0000000180014a3c     libvcruntime:winapi_downlevel.obj
 0002:00007a3c       $unwind$uninitialize_allocated_memory 0000000180014a3c     libucrt:initialization.obj
 0002:00007a3c       $unwind$__acrt_AppPolicyGetProcessTerminationMethodInternal 0000000180014a3c     libucrt:winapi_thunks.obj
 0002:00007a3c       $unwind$initialize_pointers 0000000180014a3c     libucrt:initialization.obj
 0002:00007a3c       $unwind$__std_type_info_destroy_list 0000000180014a3c     libvcruntime:std_type_info.obj
 0002:00007a44       $unwind$__security_init_cookie 0000000180014a44     LIBCMT:gs_support.obj
 0002:00007a50       $unwind$__scrt_is_nonwritable_in_current_image 0000000180014a50     LIBCMT:utility.obj
 0002:00007a70       $unwind$__scrt_is_nonwritable_in_current_image$filt$0 0000000180014a70     LIBCMT:utility.obj
 0002:00007a78       $unwind$?getSystemCP@@YAHH@Z 0000000180014a78     libucrt:mbctype.obj
 0002:00007a78       $unwind$__scrt_initialize_onexit_tables 0000000180014a78     LIBCMT:utility.obj
 0002:00007a78       $unwind$_isleadbyte_l      0000000180014a78     libucrt:_wctype.obj
 0002:00007a78       $unwind$__dcrt_lowio_ensure_console_output_initialized 0000000180014a78     libucrt:initcon.obj
 0002:00007a80       $unwind$__scrt_dllmain_exception_filter 0000000180014a80     LIBCMT:utility.obj
 0002:00007a80       $unwind$__acrt_free_locale 0000000180014a80     libucrt:locale_refcounting.obj
 0002:00007a80       $unwind$_initterm          0000000180014a80     libucrt:initterm.obj
 0002:00007a80       $unwind$?setSBCS@@YAXPEAU__crt_multibyte_data@@@Z 0000000180014a80     libucrt:mbctype.obj
 0002:00007a80       $unwind$__acrt_lowio_create_handle_array 0000000180014a80     libucrt:osfinfo.obj
 0002:00007a80       $unwind$_seh_filter_exe    0000000180014a80     libucrt:exception_filter.obj
 0002:00007a80       $unwind$_recalloc_base     0000000180014a80     libucrt:recalloc.obj
 0002:00007a94       $unwind$__scrt_fastfail    0000000180014a94     LIBCMT:utility_desktop.obj
 0002:00007aa4       $unwind$_updatetlocinfoEx_nolock 0000000180014aa4     libucrt:locale_refcounting.obj
 0002:00007aa4       $unwind$__acrt_uninitialize_lowio 0000000180014aa4     libucrt:ioinit.obj
 0002:00007aa4       $unwind$?replace_current_thread_locale_nolock@@YAXQEAU__acrt_ptd@@QEAU__crt_locale_data@@@Z 0000000180014aa4     libucrt:per_thread_data.obj
 0002:00007aa4       $unwind$__vcrt_FlsSetValue 0000000180014aa4     libvcruntime:winapi_downlevel.obj
 0002:00007aa4       $unwind$_initterm_e        0000000180014aa4     libucrt:initterm.obj
 0002:00007aa4       $unwind$_RTC_Terminate     0000000180014aa4     LIBCMT:initsect.obj
 0002:00007aa4       $unwind$__acrt_FlsSetValue 0000000180014aa4     libucrt:winapi_thunks.obj
 0002:00007aa4       $unwind$_fclose_nolock     0000000180014aa4     libucrt:fclose.obj
 0002:00007aa4       $unwind$strncpy_s          0000000180014aa4     libucrt:strncpy_s.obj
 0002:00007aa4       $unwind$_realloc_base      0000000180014aa4     libucrt:realloc_base.obj
 0002:00007aa4       $unwind$__acrt_LocaleNameToLCID 0000000180014aa4     libucrt:winapi_thunks.obj
 0002:00007aa4       $unwind$_RTC_Initialize    0000000180014aa4     LIBCMT:initsect.obj
 0002:00007aa4       $unwind$__acrt_execute_uninitializers 0000000180014aa4     libucrt:shared_initialization.obj
 0002:00007aa4       $unwind$??$common_initialize_environment_nolock@D@@YAHXZ 0000000180014aa4     libucrt:environment_initialization.obj
 0002:00007aa4       $unwind$__acrt_errno_map_os_error 0000000180014aa4     libucrt:errno.obj
 0002:00007aa4       $unwind$_close_nolock      0000000180014aa4     libucrt:close.obj
 0002:00007ab0       $unwind$__isa_available_init 0000000180014ab0     LIBCMT:cpu_disp.obj
 0002:00007ac8       $xdatasym                  0000000180014ac8     LIBCMT:guard_dispatch.obj
 0002:00007acc       $unwind$__C_specific_handler 0000000180014acc     libvcruntime:riscchandler.obj
 0002:00007ae8       $xdatasym                  0000000180014ae8     libvcruntime:memset.obj
 0002:00007af8       $xdatasym                  0000000180014af8     libvcruntime:notify.obj
 0002:00007b04       $unwind$__DestructExceptionObject 0000000180014b04     libvcruntime:ehhelpers.obj
 0002:00007b24       $unwind$__acrt_initialize_winapi_thunks 0000000180014b24     libucrt:winapi_thunks.obj
 0002:00007b24       $unwind$__vcrt_initialize_winapi_thunks 0000000180014b24     libvcruntime:winapi_downlevel.obj
 0002:00007b2c       $unwind$__vcrt_uninitialize_winapi_thunks 0000000180014b2c     libvcruntime:winapi_downlevel.obj
 0002:00007b34       $unwind$?try_get_function@@YAPEAXW4function_id@?A0xa3b92138@@QEBDQEBW4module_id@2@2@Z 0000000180014b34     libvcruntime:winapi_downlevel.obj
 0002:00007b34       $unwind$?try_get_function@@YAPEAXW4function_id@?A0x391cf84c@@QEBDQEBW4module_id@2@2@Z 0000000180014b34     libucrt:winapi_thunks.obj
 0002:00007b50       $xdatasym                  0000000180014b50     libvcruntime:memcpy.obj
 0002:00007b60       $xdatasym                  0000000180014b60     libvcruntime:handlers.obj
 0002:00007b70       $unwind$?common_exit@@YAXHW4_crt_exit_cleanup_mode@@W4_crt_exit_return_mode@@@Z 0000000180014b70     libucrt:exit.obj
 0002:00007b7c       $unwind$??R<lambda_6e4b09c48022b2350581041d5f6b0c4c>@@QEBA@XZ 0000000180014b7c     libucrt:exit.obj
 0002:00007b9c       $unwind$??$?RV<lambda_d80eeec6fff315bfe5c115232f3240e3>@@AEAV<lambda_6e4b09c48022b2350581041d5f6b0c4c>@@V<lambda_2358e3775559c9db80273638284d5e45>@@@?$__crt_seh_guarded_call@X@@QEAAX$$QEAV<lambda_d80eeec6fff315bfe5c115232f3240e3>@@AEAV<lambda_6e4b09c48022b2350581041d5f6b0c4c>@@$$QEAV<lambda_2358e3775559c9db80273638284d5e45>@@@Z 0000000180014b9c     libucrt:exit.obj
 0002:00007bc0       $unwind$_configure_narrow_argv 0000000180014bc0     libucrt:argv_parsing.obj
 0002:00007bd4       $unwind$??$parse_command_line@D@@YAXPEADPEAPEAD0PEA_K2@Z 0000000180014bd4     libucrt:argv_parsing.obj
 0002:00007bf0       $unwind$??$free_environment@D@@YAXQEAPEAD@Z 0000000180014bf0     libucrt:environment_initialization.obj
 0002:00007bf0       $unwind$??$free_environment@_W@@YAXQEAPEA_W@Z 0000000180014bf0     libucrt:environment_initialization.obj
 0002:00007bfc       $unwind$??$create_environment@D@@YAQEAPEADQEAD@Z 0000000180014bfc     libucrt:environment_initialization.obj
 0002:00007c14       $unwind$_execute_onexit_table 0000000180014c14     libucrt:onexit.obj
 0002:00007c1c       $unwind$??R<lambda_f03950bc5685219e0bcd2087efbe011e>@@QEBAHXZ 0000000180014c1c     libucrt:onexit.obj
 0002:00007c34       $unwind$??$?RV<lambda_7777bce6b2f8c936911f934f8298dc43>@@AEAV<lambda_f03950bc5685219e0bcd2087efbe011e>@@V<lambda_3883c3dff614d5e0c5f61bb1ac94921c>@@@?$__crt_seh_guarded_call@H@@QEAAH$$QEAV<lambda_7777bce6b2f8c936911f934f8298dc43>@@AEAV<lambda_f03950bc5685219e0bcd2087efbe011e>@@$$QEAV<lambda_3883c3dff614d5e0c5f61bb1ac94921c>@@@Z 0000000180014c34     libucrt:onexit.obj
 0002:00007c58       $unwind$terminate          0000000180014c58     libucrt:terminate.obj
 0002:00007c78       $xdatasym                  0000000180014c78     libucrt:strncmp.obj
 0002:00007c7c       $unwind$_invalid_parameter_noinfo 0000000180014c7c     libucrt:invalid_parameter.obj
 0002:00007c7c       $unwind$_log10_special     0000000180014c7c     libucrt:log_special.obj
 0002:00007c84       $unwind$__acrt_call_reportfault 0000000180014c84     libucrt:invalid_parameter.obj
 0002:00007ca4       $unwind$_invalid_parameter 0000000180014ca4     libucrt:invalid_parameter.obj
 0002:00007cb8       $unwind$__acrt_locale_free_numeric 0000000180014cb8     libucrt:initnum.obj
 0002:00007cb8       $unwind$__acrt_locale_free_lc_time_if_unreferenced 0000000180014cb8     libucrt:locale_refcounting.obj
 0002:00007cb8       $unwind$_free_base         0000000180014cb8     libucrt:free_base.obj
 0002:00007cb8       $unwind$?destroy_fls@@YAXPEAX@Z 0000000180014cb8     libucrt:per_thread_data.obj
 0002:00007cc0       $unwind$?construct_ptd_array@@YAXQEAU__acrt_ptd@@@Z 0000000180014cc0     libucrt:per_thread_data.obj
 0002:00007cc8       $unwind$?destroy_ptd_array@@YAXQEAU__acrt_ptd@@@Z 0000000180014cc8     libucrt:per_thread_data.obj
 0002:00007cd0       $unwind$??$?RV<lambda_0ae27a3a962d80f24befdcbee591983d>@@AEAV<lambda_8d0ee55de4b1038c4002e0adecdf1839>@@V<lambda_dc504788e8f1664fe9b84e20bfb512f2>@@@?$__crt_seh_guarded_call@X@@QEAAX$$QEAV<lambda_0ae27a3a962d80f24befdcbee591983d>@@AEAV<lambda_8d0ee55de4b1038c4002e0adecdf1839>@@$$QEAV<lambda_dc504788e8f1664fe9b84e20bfb512f2>@@@Z 0000000180014cd0     libucrt:per_thread_data.obj
 0002:00007cf4       $unwind$??$?RV<lambda_aa87e3671a710a21b5dc78c0bdf72e11>@@AEAV<lambda_92619d2358a28f41a33ba319515a20b9>@@V<lambda_6992ecaafeb10aed2b74cb1fae11a551>@@@?$__crt_seh_guarded_call@X@@QEAAX$$QEAV<lambda_aa87e3671a710a21b5dc78c0bdf72e11>@@AEAV<lambda_92619d2358a28f41a33ba319515a20b9>@@$$QEAV<lambda_6992ecaafeb10aed2b74cb1fae11a551>@@@Z 0000000180014cf4     libucrt:per_thread_data.obj
 0002:00007d18       $unwind$??$?RV<lambda_f2e299630e499de9f9a165e60fcd3db5>@@AEAV<lambda_2ae9d31cdba2644fcbeaf08da7c24588>@@V<lambda_40d01ff24d0e7b3814fdbdcee8eab3c7>@@@?$__crt_seh_guarded_call@X@@QEAAX$$QEAV<lambda_f2e299630e499de9f9a165e60fcd3db5>@@AEAV<lambda_2ae9d31cdba2644fcbeaf08da7c24588>@@$$QEAV<lambda_40d01ff24d0e7b3814fdbdcee8eab3c7>@@@Z 0000000180014d18     libucrt:per_thread_data.obj
 0002:00007d3c       $unwind$??$?RV<lambda_2d41944a1d46af3157314b8a01080d33>@@AEAV<lambda_8f455de75cd7d7f24b4096f044d8b9e6>@@V<lambda_aa500f224e6afead328df44964fe2772>@@@?$__crt_seh_guarded_call@X@@QEAAX$$QEAV<lambda_2d41944a1d46af3157314b8a01080d33>@@AEAV<lambda_8f455de75cd7d7f24b4096f044d8b9e6>@@$$QEAV<lambda_aa500f224e6afead328df44964fe2772>@@@Z 0000000180014d3c     libucrt:per_thread_data.obj
 0002:00007d60       $unwind$__acrt_uninitialize_locale 0000000180014d60     libucrt:wsetlocale.obj
 0002:00007d60       $unwind$__acrt_get_sigabrt_handler 0000000180014d60     libucrt:signal.obj
 0002:00007d68       $unwind$??$?RV<lambda_410d79af7f07d98d83a3f525b3859a53>@@AEAV<lambda_3e16ef9562a7dcce91392c22ab16ea36>@@V<lambda_38119f0e861e05405d8a144b9b982f0a>@@@?$__crt_seh_guarded_call@X@@QEAAX$$QEAV<lambda_410d79af7f07d98d83a3f525b3859a53>@@AEAV<lambda_3e16ef9562a7dcce91392c22ab16ea36>@@$$QEAV<lambda_38119f0e861e05405d8a144b9b982f0a>@@@Z 0000000180014d68     libucrt:wsetlocale.obj
 0002:00007d90       $unwind$??$__acrt_mbs_to_wcs_cp@U__crt_win32_buffer_internal_dynamic_resizing@@@@YAHQEBDAEAV?$__crt_win32_buffer@_WU__crt_win32_buffer_internal_dynamic_resizing@@@@I@Z 0000000180014d90     libucrt:argv_wildcards.obj
 0002:00007da8       $unwind$__dcrt_get_narrow_environment_from_os 0000000180014da8     libucrt:get_environment_from_os.obj
 0002:00007da8       $unwind$??$__acrt_wcs_to_mbs_cp@U__crt_win32_buffer_internal_dynamic_resizing@@@@YAHQEB_WAEAV?$__crt_win32_buffer@DU__crt_win32_buffer_internal_dynamic_resizing@@@@I@Z 0000000180014da8     libucrt:argv_wildcards.obj
 0002:00007dc0       $unwind$??$common_expand_argv_wildcards@D@@YAHQEAPEADQEAPEAPEAD@Z 0000000180014dc0     libucrt:argv_wildcards.obj
 0002:00007dd8       $unwind$??$copy_and_add_argument_to_buffer@D@@YAHQEBD0_KAEAV?$argument_list@D@?A0x5f5c8891@@@Z 0000000180014dd8     libucrt:argv_wildcards.obj
 0002:00007df4       $unwind$??$expand_argument_wildcards@D@@YAHQEAD0AEAV?$argument_list@D@?A0x5f5c8891@@@Z 0000000180014df4     libucrt:argv_wildcards.obj
 0002:00007e18       $unwind$__acrt_GetModuleFileNameA 0000000180014e18     libucrt:getmodulefilenamea.obj
 0002:00007e34       $unwind$??$__acrt_wcs_to_mbs_cp@U__crt_win32_buffer_no_resizing@@@@YAHQEB_WAEAV?$__crt_win32_buffer@DU__crt_win32_buffer_no_resizing@@@@I@Z 0000000180014e34     libucrt:getmodulefilenamea.obj
 0002:00007e34       $unwind$__dcrt_write_console 0000000180014e34     libucrt:initcon.obj
 0002:00007e48       $unwind$_setmbcp_nolock    0000000180014e48     libucrt:mbctype.obj
 0002:00007e68       $unwind$?update_thread_multibyte_data_internal@@YAPEAU__crt_multibyte_data@@QEAU__acrt_ptd@@QEAPEAU1@@Z 0000000180014e68     libucrt:mbctype.obj
 0002:00007e90       $unwind$?setmbcp_internal@@YAHH_NQEAU__acrt_ptd@@QEAPEAU__crt_multibyte_data@@@Z 0000000180014e90     libucrt:mbctype.obj
 0002:00007ea0       $unwind$?setSBUpLow@@YAXPEAU__crt_multibyte_data@@@Z 0000000180014ea0     libucrt:mbctype.obj
 0002:00007ebc       $unwind$??$?RV<lambda_efdfa57d1f175319df784efa44bb7b81>@@AEAV<lambda_5f0a4c1567f8adc6734073e5d1e1b35c>@@V<lambda_2e8a7d3640ea6ccb4c2413664c2db6fd>@@@?$__crt_seh_guarded_call@X@@QEAAX$$QEAV<lambda_efdfa57d1f175319df784efa44bb7b81>@@AEAV<lambda_5f0a4c1567f8adc6734073e5d1e1b35c>@@$$QEAV<lambda_2e8a7d3640ea6ccb4c2413664c2db6fd>@@@Z 0000000180014ebc     libucrt:mbctype.obj
 0002:00007ee0       $unwind$?x_ismbbtype_l@@YAHPEAU__crt_locale_pointers@@IHH@Z 0000000180014ee0     libucrt:ismbbyte.obj
 0002:00007ef0       $unwind$__acrt_WideCharToMultiByte 0000000180014ef0     libucrt:widechartomultibyte.obj
 0002:00007ef0       $unwind$__GSHandlerCheckCommon 0000000180014ef0     LIBCMT:gshandler.obj
 0002:00007ef8       $unwind$_mbtowc_l          0000000180014ef8     libucrt:mbtowc.obj
 0002:00007ef8       $unwind$__acrt_LCMapStringEx 0000000180014ef8     libucrt:winapi_thunks.obj
 0002:00007f0c       $unwind$__acrt_initialize_lowio 0000000180014f0c     libucrt:ioinit.obj
 0002:00007f2c       $unwind$?initialize_inherited_file_handles_nolock@@YAXXZ 0000000180014f2c     libucrt:ioinit.obj
 0002:00007f48       $unwind$?initialize_stdio_handles_nolock@@YAXXZ 0000000180014f48     libucrt:ioinit.obj
 0002:00007f48       $unwind$__acrt_initialize_stdio 0000000180014f48     libucrt:_file.obj
 0002:00007f60       $unwind$_query_new_handler 0000000180014f60     libucrt:new_handler.obj
 0002:00007f80       $unwind$raise              0000000180014f80     libucrt:signal.obj
 0002:00007fbc       $unwind$??$?RV<lambda_450d765d439847d4c735a33c368b5fc0>@@AEAV<lambda_44731a7d0e6d81c3e6aa82d741081786>@@V<lambda_601a2a7da3b7a96e9554ac7215c4b07c>@@@?$__crt_seh_guarded_call@P6AXH@Z@@QEAAP6AXH@Z$$QEAV<lambda_450d765d439847d4c735a33c368b5fc0>@@AEAV<lambda_44731a7d0e6d81c3e6aa82d741081786>@@$$QEAV<lambda_601a2a7da3b7a96e9554ac7215c4b07c>@@@Z 0000000180014fbc     libucrt:signal.obj
 0002:00007fe0       $unwind$?common_flush_all@@YAH_N@Z 0000000180014fe0     libucrt:fflush.obj
 0002:00007fe8       $unwind$??$?RV<lambda_842d9ff0dc9ef11c61343bbaebe7f885>@@AEAV<lambda_c5860995281e5c4ce005b3de8f5874ee>@@V<lambda_d90129c13df834fdcbf8d2b88dafcf2d>@@@?$__crt_seh_guarded_call@X@@QEAAX$$QEAV<lambda_842d9ff0dc9ef11c61343bbaebe7f885>@@AEAV<lambda_c5860995281e5c4ce005b3de8f5874ee>@@$$QEAV<lambda_d90129c13df834fdcbf8d2b88dafcf2d>@@@Z 0000000180014fe8     libucrt:fflush.obj
 0002:0000800c       $unwind$??$?RV<lambda_886d6c58226a84441f68b9f2b8217b83>@@AEAV<lambda_ab61a845afdef5b7c387490eaf3616ee>@@V<lambda_f7f22ab5edc0698d5f6905b0d3f44752>@@@?$__crt_seh_guarded_call@X@@QEAAX$$QEAV<lambda_886d6c58226a84441f68b9f2b8217b83>@@AEAV<lambda_ab61a845afdef5b7c387490eaf3616ee>@@$$QEAV<lambda_f7f22ab5edc0698d5f6905b0d3f44752>@@@Z 000000018001500c     libucrt:fflush.obj
 0002:00008034       $unwind$__acrt_LCMapStringA 0000000180015034     libucrt:lcmapstringa.obj
 0002:00008044       $unwind$?__acrt_LCMapStringA_stat@@YAHPEAU__crt_locale_pointers@@PEB_WKPEBDHPEADHHH@Z 0000000180015044     libucrt:lcmapstringa.obj
 0002:0000806c       $unwind$__acrt_update_thread_locale_data 000000018001506c     libucrt:locale_refcounting.obj
 0002:00008090       $unwind$__acrt_locale_free_monetary 0000000180015090     libucrt:initmon.obj
 0002:00008098       $unwind$__acrt_locale_free_time 0000000180015098     libucrt:inittime.obj
 0002:000080a8       $unwind$__acrt_GetStringTypeA 00000001800150a8     libucrt:getstringtypea.obj
 0002:000080d0       $unwind$qsort              00000001800150d0     libucrt:qsort.obj
 0002:000080e8       $chain$4$qsort             00000001800150e8     libucrt:qsort.obj
 0002:0000810c       $chain$5$qsort             000000018001510c     libucrt:qsort.obj
 0002:0000811c       $unwind$strpbrk            000000018001511c     libucrt:strpbrk.obj
 0002:0000812c       $unwind$fallbackMethod     000000018001512c     libucrt:strpbrk.obj
 0002:0000813c       $unwind$_mbsdec_l          000000018001513c     libucrt:mbsdec.obj
 0002:00008148       $unwind$?GetTableIndexFromLocaleName@@YAHPEB_W@Z 0000000180015148     libucrt:lcidtoname_downlevel.obj
 0002:00008160       $unwind$_free_osfhnd       0000000180015160     libucrt:osfinfo.obj
 0002:00008174       $unwind$__acrt_lowio_destroy_handle_array 0000000180015174     libucrt:osfinfo.obj
 0002:00008184       $unwind$__acrt_lowio_ensure_fh_exists 0000000180015184     libucrt:osfinfo.obj
 0002:000081b0       $unwind$_commit            00000001800151b0     libucrt:commit.obj
 0002:000081b0       $unwind$_close             00000001800151b0     libucrt:close.obj
 0002:000081b8       $unwind$??$?RV<lambda_a37b2b86f63e897a80ea819b0eb08c01>@@AEAV<lambda_38ce7e780aa69e748d6df282ebc68efe>@@V<lambda_99fb1378e971ab6e7edea83e3a7a83a2>@@@?$__crt_seh_guarded_call@H@@QEAAH$$QEAV<lambda_a37b2b86f63e897a80ea819b0eb08c01>@@AEAV<lambda_38ce7e780aa69e748d6df282ebc68efe>@@$$QEAV<lambda_99fb1378e971ab6e7edea83e3a7a83a2>@@@Z 00000001800151b8     libucrt:commit.obj
 0002:000081dc       $unwind$_write             00000001800151dc     libucrt:write.obj
 0002:0000820c       $unwind$_write_nolock      000000018001520c     libucrt:write.obj
 0002:00008224       $unwind$?write_double_translated_ansi_nolock@@YA?AUwrite_result@?A0x17268360@@HQEBDI@Z 0000000180015224     libucrt:write.obj
 0002:00008248       $unwind$?write_text_ansi_nolock@@YA?AUwrite_result@?A0x17268360@@HQEBDI@Z 0000000180015248     libucrt:write.obj
 0002:00008248       $unwind$?write_text_utf16le_nolock@@YA?AUwrite_result@?A0x17268360@@HQEBDI@Z 0000000180015248     libucrt:write.obj
 0002:00008268       $unwind$?write_text_utf8_nolock@@YA?AUwrite_result@?A0x17268360@@HQEBDI@Z 0000000180015268     libucrt:write.obj
 0002:0000828c       $unwind$_fcloseall         000000018001528c     libucrt:closeall.obj
 0002:000082b0       $unwind$?__mbrtowc_utf8@__crt_mbstring@@YA_KPEA_WPEBD_KPEAU_Mbstatet@@@Z 00000001800152b0     libucrt:mbrtowc.obj
 0002:000082b8       $unwind$?__mbsrtowcs_utf8@__crt_mbstring@@YA_KPEA_WPEAPEBD_KPEAU_Mbstatet@@@Z 00000001800152b8     libucrt:mbrtowc.obj
 0002:000082d0       $unwind$_putwch_nolock     00000001800152d0     libucrt:putwch.obj
 0002:000082d8       $unwind$fclose             00000001800152d8     libucrt:fclose.obj
 0002:000082fc       $unwind$?__mbrtoc32_utf8@__crt_mbstring@@YA_KPEA_UPEBD_KPEAU_Mbstatet@@@Z 00000001800152fc     libucrt:mbrtoc32.obj
 0002:00008318       $xdatasym                  0000000180015318     libucrt:log10.obj
 0002:00008324       $unwind$??$?RV<lambda_751a882b2c74d4b022dec766aa51a29a>@@AEAV<lambda_628dfdc04ba53c8bfc02c9951375f3f5>@@V<lambda_f6c7be5f7998530c34de24c7437d6b54>@@@?$__crt_seh_guarded_call@H@@QEAAH$$QEAV<lambda_751a882b2c74d4b022dec766aa51a29a>@@AEAV<lambda_628dfdc04ba53c8bfc02c9951375f3f5>@@$$QEAV<lambda_f6c7be5f7998530c34de24c7437d6b54>@@@Z 0000000180015324     libucrt:close.obj
 0002:00008348       $unwind$_call_matherr      0000000180015348     libucrt:libm_error.obj
 0002:00008350       $unwind$_handle_error      0000000180015350     libucrt:libm_error.obj
 0002:00008370       $unwind$__acrt_initialize_fma3 0000000180015370     libucrt:fma3_available.obj
 0002:00008378       $unwind$_log_special_common 0000000180015378     libucrt:log_special.obj
 0002:00008388       $xdatasym                  0000000180015388     libucrt:fpsr.obj
 0002:00008390       $unwind$_raise_exc         0000000180015390     libucrt:fpexcept.obj
 0002:00008398       $unwind$_raise_exc_ex      0000000180015398     libucrt:fpexcept.obj
 0002:000083ac       $unwind$_ctrlfp            00000001800153ac     libucrt:fpctrl.obj
 0002:000083d4       $unwind$_IsNonwritableInCurrentImage 00000001800153d4     LIBCMT:pesect.obj
 0002:000083f8       $xdatasym                  00000001800153f8     LIBCMT:chkstk.obj
 0002:00008400       $xdatasym                  0000000180015400     libvcruntime:memcmp.obj
 0002:00008410       .edata                     0000000180015410     win32ipc.exp
 0002:00008438       rgpv                       0000000180015438     win32ipc.exp
 0002:0000843c       rgszName                   000000018001543c     win32ipc.exp
 0002:00008440       rgwOrd                     0000000180015440     win32ipc.exp
 0002:00008442       szName                     0000000180015442     win32ipc.exp
 0002:00008450       $N00001                    0000000180015450     win32ipc.exp
 0002:00008774       .idata$6                   0000000180015774     kernel32:KERNEL32.dll
 0002:00008b60       .idata$6                   0000000180015b60     iojs:node.dll
 0003:00000030       ?__vcrt_flsindex@@3KA      0000000180017030     libvcruntime:per_thread_data.obj
 0003:00000044       ?errno_no_memory@@3HA      0000000180017044     libucrt:errno.obj
 0003:00000048       ?doserrno_no_memory@@3KA   0000000180017048     libucrt:errno.obj
 0003:0000004c       ?__acrt_flsindex@@3KA      000000018001704c     libucrt:per_thread_data.obj
 0003:000001c0       _mbctypes                  00000001800171c0     libucrt:mbctype.obj
 0003:000002d0       _mbcasemaps                00000001800172d0     libucrt:mbctype.obj
 0003:000003d0       ?__rgctypeflag@@3PADA      00000001800173d0     libucrt:mbctype.obj
 0003:000003e0       ?__rgcode_page_info@@3PAUcode_page_info@@A 00000001800173e0     libucrt:mbctype.obj
 0003:000009b0       ?__dcrt_lowio_console_output_handle@@3PEAXEA 00000001800179b0     libucrt:initcon.obj
 0003:000009c0       ?dazSupported@?1??_ctrlfp@@9@9 00000001800179c0     libucrt:fpctrl.obj
 0003:000009e0       _module                    00000001800179e0     module.obj
 0003:00000a20       ?__proc_attached@@3HA      0000000180017a20     LIBCMT:dll_dllmain.obj
 0003:00000a30       GS_ExceptionRecord         0000000180017a30     LIBCMT:gs_report.obj
 0003:00000ad0       GS_ContextRecord           0000000180017ad0     LIBCMT:gs_report.obj
 0003:00000fd0       ?is_initialized_as_dll@@3_NA 0000000180017fd0     LIBCMT:utility.obj
 0003:00000fd1       ?module_local_atexit_table_initialized@@3_NA 0000000180017fd1     LIBCMT:utility.obj
 0003:00000fd8       ?module_local_atexit_table@@3U_onexit_table_t@@A 0000000180017fd8     LIBCMT:utility.obj
 0003:00000ff0       ?module_local_at_quick_exit_table@@3U_onexit_table_t@@A 0000000180017ff0     LIBCMT:utility.obj
 0003:00001058       ?heap@@3V_HeapManager@@A   0000000180018058     libvcruntime:undname.obj
 0003:00001080       ?__vcrt_startup_thread_ptd@@3U__vcrt_ptd@@A 0000000180018080     libvcruntime:per_thread_data.obj
 0003:00001110       __vcrt_lock_table          0000000180018110     libvcruntime:locks.obj
 0003:00001138       __vcrt_locks_initialized   0000000180018138     libvcruntime:locks.obj
 0003:00001140       ?module_handles@@3PAPEAUHINSTANCE__@@A 0000000180018140     libvcruntime:winapi_downlevel.obj
 0003:00001158       ?encoded_function_pointers@@3PAPEAXA 0000000180018158     libvcruntime:winapi_downlevel.obj
 0003:00001188       ?c_termination_complete@@3JA 0000000180018188     libucrt:exit.obj
 0003:00001190       ?thread_local_exit_callback_func@@3P6AXPEAXK0@ZEA 0000000180018190     libucrt:exit.obj
 0003:000011a0       ?program_name@?1???$common_configure_argv@D@@YAHW4_crt_argv_mode@@@Z@4PADA 00000001800181a0     libucrt:argv_parsing.obj
 0003:000012f8       ?__acrt_invalid_parameter_handler@@3V?$dual_state_global@P6AXPEB_W00I_K@Z@__crt_state_management@@A 00000001800182f8     libucrt:invalid_parameter.obj
 0003:00001310       ?__acrt_lock_table@@3PAU_RTL_CRITICAL_SECTION@@A 0000000180018310     libucrt:locks.obj
 0003:00001540       ?__acrt_locks_initialized@@3IA 0000000180018540     libucrt:locks.obj
 0003:00001560       ?fSystemSet@@3HA           0000000180018560     libucrt:mbctype.obj
 0003:00001564       ?initialized@?1??__acrt_initialize_multibyte@@9@4_NA 0000000180018564     libucrt:mbctype.obj
 0003:000015a0       ?module_handles@@3PAPEAUHINSTANCE__@@A 00000001800185a0     libucrt:winapi_thunks.obj
 0003:00001640       ?encoded_function_pointers@@3PAPEAXA 0000000180018640     libucrt:winapi_thunks.obj
 0003:00001b68       ?__acrt_new_handler@@3V?$dual_state_global@P6AH_K@Z@__crt_state_management@@A 0000000180018b68     libucrt:new_handler.obj
 0003:00001b70       ?ctrlc_action@@3V?$dual_state_global@P6AXH@Z@__crt_state_management@@A 0000000180018b70     libucrt:signal.obj
 0003:00001b78       ?ctrlbreak_action@@3V?$dual_state_global@P6AXH@Z@__crt_state_management@@A 0000000180018b78     libucrt:signal.obj
 0003:00001b80       ?abort_action@@3V?$dual_state_global@P6AXH@Z@__crt_state_management@@A 0000000180018b80     libucrt:signal.obj
 0003:00001b88       ?term_action@@3V?$dual_state_global@P6AXH@Z@__crt_state_management@@A 0000000180018b88     libucrt:signal.obj
 0003:00001b90       ?user_matherr@@3V?$dual_state_global@P6AHPEAU_exception@@@Z@__crt_state_management@@A 0000000180018b90     libucrt:matherr.obj
 0003:00001bb8       ?internal_state@?1??_mbtowc_l@@9@4U_Mbstatet@@A 0000000180018bb8     libucrt:mbtowc.obj
 0003:00001bc8       ?__acrt_global_new_mode@@3V?$dual_state_global@J@__crt_state_management@@A 0000000180018bc8     libucrt:new_mode.obj
 0003:00001bcc       ?__acrt_app_type@@3W4_crt_app_type@@A 0000000180018bcc     libucrt:report_runtime_error.obj
 0003:00001bd0       ?internal_pst@?1??__mbrtoc32_utf8@__crt_mbstring@@YA_KPEA_UPEBD_KPEAU_Mbstatet@@@Z@4U3@A 0000000180018bd0     libucrt:mbrtoc32.obj
 0004:00000000       $pdata$?CreatePipe@@YAXAEBV?$FunctionCallbackInfo@VValue@v8@@@v8@@@Z 0000000180019000     module.obj
 0004:0000000c       $pdata$3$?CreatePipe@@YAXAEBV?$FunctionCallbackInfo@VValue@v8@@@v8@@@Z 000000018001900c     module.obj
 0004:00000018       $pdata$4$?CreatePipe@@YAXAEBV?$FunctionCallbackInfo@VValue@v8@@@v8@@@Z 0000000180019018     module.obj
 0004:00000024       $pdata$?Init@@YAXV?$Local@VObject@v8@@@v8@@@Z 0000000180019024     module.obj
 0004:0000003c       $pdata$?dllmain_crt_dispatch@@YAHQEAUHINSTANCE__@@KQEAX@Z 000000018001903c     LIBCMT:dll_dllmain.obj
 0004:00000048       $pdata$?dllmain_crt_process_attach@@YAHQEAUHINSTANCE__@@QEAX@Z 0000000180019048     LIBCMT:dll_dllmain.obj
 0004:00000054       $pdata$?dllmain_crt_process_detach@@YAH_N@Z 0000000180019054     LIBCMT:dll_dllmain.obj
 0004:00000060       $pdata$?dllmain_dispatch@@YAHQEAUHINSTANCE__@@KQEAX@Z 0000000180019060     LIBCMT:dll_dllmain.obj
 0004:0000006c       $pdata$_DllMainCRTStartup  000000018001906c     LIBCMT:dll_dllmain.obj
 0004:00000078       $pdata$__raise_securityfailure 0000000180019078     LIBCMT:gs_report.obj
 0004:00000084       $pdata$__report_gsfailure  0000000180019084     LIBCMT:gs_report.obj
 0004:00000090       $pdata$__report_rangecheckfailure 0000000180019090     LIBCMT:gs_report.obj
 0004:0000009c       $pdata$__report_securityfailure 000000018001909c     LIBCMT:gs_report.obj
 0004:000000a8       $pdata$capture_current_context 00000001800190a8     LIBCMT:gs_report.obj
 0004:000000b4       $pdata$capture_previous_context 00000001800190b4     LIBCMT:gs_report.obj
 0004:000000c0       $pdata$__security_init_cookie 00000001800190c0     LIBCMT:gs_support.obj
 0004:000000cc       $pdata$__scrt_initialize_default_local_stdio_options 00000001800190cc     LIBCMT:default_local_stdio_options.obj
 0004:000000d8       $pdata$__scrt_acquire_startup_lock 00000001800190d8     LIBCMT:utility.obj
 0004:000000e4       $pdata$__scrt_dllmain_after_initialize_c 00000001800190e4     LIBCMT:utility.obj
 0004:000000f0       $pdata$__scrt_dllmain_before_initialize_c 00000001800190f0     LIBCMT:utility.obj
 0004:000000fc       $pdata$__scrt_dllmain_crt_thread_attach 00000001800190fc     LIBCMT:utility.obj
 0004:00000108       $pdata$__scrt_dllmain_crt_thread_detach 0000000180019108     LIBCMT:utility.obj
 0004:00000114       $pdata$__scrt_dllmain_exception_filter 0000000180019114     LIBCMT:utility.obj
 0004:00000120       $pdata$__scrt_dllmain_uninitialize_c 0000000180019120     LIBCMT:utility.obj
 0004:0000012c       $pdata$__scrt_dllmain_uninitialize_critical 000000018001912c     LIBCMT:utility.obj
 0004:00000138       $pdata$__scrt_initialize_crt 0000000180019138     LIBCMT:utility.obj
 0004:00000144       $pdata$__scrt_initialize_onexit_tables 0000000180019144     LIBCMT:utility.obj
 0004:00000150       $pdata$__scrt_is_nonwritable_in_current_image 0000000180019150     LIBCMT:utility.obj
 0004:0000015c       $pdata$__scrt_release_startup_lock 000000018001915c     LIBCMT:utility.obj
 0004:00000168       $pdata$__scrt_uninitialize_crt 0000000180019168     LIBCMT:utility.obj
 0004:00000174       $pdata$__scrt_fastfail     0000000180019174     LIBCMT:utility_desktop.obj
 0004:00000180       $pdata$_RTC_Initialize     0000000180019180     LIBCMT:initsect.obj
 0004:0000018c       $pdata$_RTC_Terminate      000000018001918c     LIBCMT:initsect.obj
 0004:00000198       $pdata$__isa_available_init 0000000180019198     LIBCMT:cpu_disp.obj
 0004:000001a4       $pdata$__C_specific_handler 00000001800191a4     libvcruntime:riscchandler.obj
 0004:000001b0       $pdata$__std_type_info_destroy_list 00000001800191b0     libvcruntime:std_type_info.obj
 0004:000001bc       $pdata$__vcrt_initialize   00000001800191bc     libvcruntime:initialization.obj
 0004:000001c8       $pdata$__vcrt_thread_attach 00000001800191c8     libvcruntime:initialization.obj
 0004:000001d4       $pdata$__vcrt_thread_detach 00000001800191d4     libvcruntime:initialization.obj
 0004:000001e0       $pdata$__vcrt_uninitialize 00000001800191e0     libvcruntime:initialization.obj
 0004:000001ec       $pdata$__vcrt_uninitialize_critical 00000001800191ec     libvcruntime:initialization.obj
 0004:00000234       $pdata$__DestructExceptionObject 0000000180019234     libvcruntime:ehhelpers.obj
 0004:00000240       $pdata$__vcrt_freefls      0000000180019240     libvcruntime:per_thread_data.obj
 0004:0000024c       $pdata$__vcrt_freeptd      000000018001924c     libvcruntime:per_thread_data.obj
 0004:00000258       $pdata$__vcrt_getptd_noexit 0000000180019258     libvcruntime:per_thread_data.obj
 0004:00000264       $pdata$__vcrt_initialize_ptd 0000000180019264     libvcruntime:per_thread_data.obj
 0004:00000270       $pdata$__vcrt_uninitialize_ptd 0000000180019270     libvcruntime:per_thread_data.obj
 0004:0000027c       $pdata$__vcrt_initialize_locks 000000018001927c     libvcruntime:locks.obj
 0004:00000288       $pdata$__vcrt_uninitialize_locks 0000000180019288     libvcruntime:locks.obj
 0004:00000294       $pdata$?try_get_function@@YAPEAXW4function_id@?A0xa3b92138@@QEBDQEBW4module_id@2@2@Z 0000000180019294     libvcruntime:winapi_downlevel.obj
 0004:000002a0       $pdata$__vcrt_FlsAlloc     00000001800192a0     libvcruntime:winapi_downlevel.obj
 0004:000002ac       $pdata$__vcrt_FlsFree      00000001800192ac     libvcruntime:winapi_downlevel.obj
 0004:000002b8       $pdata$__vcrt_FlsGetValue  00000001800192b8     libvcruntime:winapi_downlevel.obj
 0004:000002c4       $pdata$__vcrt_FlsSetValue  00000001800192c4     libvcruntime:winapi_downlevel.obj
 0004:000002d0       $pdata$__vcrt_InitializeCriticalSectionEx 00000001800192d0     libvcruntime:winapi_downlevel.obj
 0004:000002dc       $pdata$__vcrt_initialize_winapi_thunks 00000001800192dc     libvcruntime:winapi_downlevel.obj
 0004:000002e8       $pdata$__vcrt_uninitialize_winapi_thunks 00000001800192e8     libvcruntime:winapi_downlevel.obj
 0004:00000324       $pdata$??0_LocaleUpdate@@QEAA@QEAU__crt_locale_pointers@@@Z 0000000180019324     libucrt:stricmp.obj
 0004:00000330       $pdata$_initterm           0000000180019330     libucrt:initterm.obj
 0004:0000033c       $pdata$_initterm_e         000000018001933c     libucrt:initterm.obj
 0004:00000348       $pdata$_seh_filter_exe     0000000180019348     libucrt:exception_filter.obj
 0004:00000354       $pdata$??$?RV<lambda_d80eeec6fff315bfe5c115232f3240e3>@@AEAV<lambda_6e4b09c48022b2350581041d5f6b0c4c>@@V<lambda_2358e3775559c9db80273638284d5e45>@@@?$__crt_seh_guarded_call@X@@QEAAX$$QEAV<lambda_d80eeec6fff315bfe5c115232f3240e3>@@AEAV<lambda_6e4b09c48022b2350581041d5f6b0c4c>@@$$QEAV<lambda_2358e3775559c9db80273638284d5e45>@@@Z 0000000180019354     libucrt:exit.obj
 0004:00000360       $pdata$??R<lambda_6e4b09c48022b2350581041d5f6b0c4c>@@QEBA@XZ 0000000180019360     libucrt:exit.obj
 0004:0000036c       $pdata$?common_exit@@YAXHW4_crt_exit_cleanup_mode@@W4_crt_exit_return_mode@@@Z 000000018001936c     libucrt:exit.obj
 0004:00000378       $pdata$?exit_or_terminate_process@@YAXI@Z 0000000180019378     libucrt:exit.obj
 0004:00000384       $pdata$?try_cor_exit_process@@YAXI@Z 0000000180019384     libucrt:exit.obj
 0004:00000390       $pdata$??$parse_command_line@D@@YAXPEADPEAPEAD0PEA_K2@Z 0000000180019390     libucrt:argv_parsing.obj
 0004:0000039c       $pdata$__acrt_allocate_buffer_for_argv 000000018001939c     libucrt:argv_parsing.obj
 0004:000003a8       $pdata$_configure_narrow_argv 00000001800193a8     libucrt:argv_parsing.obj
 0004:000003b4       $pdata$??$common_initialize_environment_nolock@D@@YAHXZ 00000001800193b4     libucrt:environment_initialization.obj
 0004:000003c0       $pdata$??$create_environment@D@@YAQEAPEADQEAD@Z 00000001800193c0     libucrt:environment_initialization.obj
 0004:000003cc       $pdata$??$free_environment@D@@YAXQEAPEAD@Z 00000001800193cc     libucrt:environment_initialization.obj
 0004:000003cc       $pdata$??$free_environment@_W@@YAXQEAPEA_W@Z 00000001800193cc     libucrt:environment_initialization.obj
 0004:000003d8       $pdata$??$uninitialize_environment_internal@D@@YAXAEAPEAPEAD@Z 00000001800193d8     libucrt:environment_initialization.obj
 0004:000003e4       $pdata$??$uninitialize_environment_internal@_W@@YAXAEAPEAPEA_W@Z 00000001800193e4     libucrt:environment_initialization.obj
 0004:000003f0       $pdata$__dcrt_uninitialize_environments_nolock 00000001800193f0     libucrt:environment_initialization.obj
 0004:000003fc       $pdata$??$?RV<lambda_7777bce6b2f8c936911f934f8298dc43>@@AEAV<lambda_f03950bc5685219e0bcd2087efbe011e>@@V<lambda_3883c3dff614d5e0c5f61bb1ac94921c>@@@?$__crt_seh_guarded_call@H@@QEAAH$$QEAV<lambda_7777bce6b2f8c936911f934f8298dc43>@@AEAV<lambda_f03950bc5685219e0bcd2087efbe011e>@@$$QEAV<lambda_3883c3dff614d5e0c5f61bb1ac94921c>@@@Z 00000001800193fc     libucrt:onexit.obj
 0004:00000408       $pdata$??R<lambda_f03950bc5685219e0bcd2087efbe011e>@@QEBAHXZ 0000000180019408     libucrt:onexit.obj
 0004:00000414       $pdata$_execute_onexit_table 0000000180019414     libucrt:onexit.obj
 0004:00000420       $pdata$initialize_c        0000000180019420     libucrt:initialization.obj
 0004:0000042c       $pdata$uninitialize_environment 000000018001942c     libucrt:initialization.obj
 0004:00000438       $pdata$initialize_pointers 0000000180019438     libucrt:initialization.obj
 0004:00000444       $pdata$uninitialize_allocated_memory 0000000180019444     libucrt:initialization.obj
 0004:00000450       $pdata$uninitialize_allocated_io_buffers 0000000180019450     libucrt:initialization.obj
 0004:0000045c       $pdata$__acrt_thread_attach 000000018001945c     libucrt:initialization.obj
 0004:00000468       $pdata$__acrt_thread_detach 0000000180019468     libucrt:initialization.obj
 0004:00000474       $pdata$__acrt_uninitialize 0000000180019474     libucrt:initialization.obj
 0004:00000480       $pdata$__acrt_uninitialize_critical 0000000180019480     libucrt:initialization.obj
 0004:0000048c       $pdata$terminate           000000018001948c     libucrt:terminate.obj
 0004:00000498       $pdata$strcpy_s            0000000180019498     libucrt:strcpy_s.obj
 0004:000004b0       $pdata$abort               00000001800194b0     libucrt:abort.obj
 0004:000004bc       $pdata$__acrt_call_reportfault 00000001800194bc     libucrt:invalid_parameter.obj
 0004:000004c8       $pdata$_invalid_parameter  00000001800194c8     libucrt:invalid_parameter.obj
 0004:000004d4       $pdata$_invalid_parameter_noinfo 00000001800194d4     libucrt:invalid_parameter.obj
 0004:000004e0       $pdata$_invoke_watson      00000001800194e0     libucrt:invalid_parameter.obj
 0004:000004ec       $pdata$__acrt_errno_map_os_error 00000001800194ec     libucrt:errno.obj
 0004:000004f8       $pdata$__doserrno          00000001800194f8     libucrt:errno.obj
 0004:00000504       $pdata$_errno              0000000180019504     libucrt:errno.obj
 0004:00000510       $pdata$??$?RV<lambda_0ae27a3a962d80f24befdcbee591983d>@@AEAV<lambda_8d0ee55de4b1038c4002e0adecdf1839>@@V<lambda_dc504788e8f1664fe9b84e20bfb512f2>@@@?$__crt_seh_guarded_call@X@@QEAAX$$QEAV<lambda_0ae27a3a962d80f24befdcbee591983d>@@AEAV<lambda_8d0ee55de4b1038c4002e0adecdf1839>@@$$QEAV<lambda_dc504788e8f1664fe9b84e20bfb512f2>@@@Z 0000000180019510     libucrt:per_thread_data.obj
 0004:0000051c       $pdata$??$?RV<lambda_2d41944a1d46af3157314b8a01080d33>@@AEAV<lambda_8f455de75cd7d7f24b4096f044d8b9e6>@@V<lambda_aa500f224e6afead328df44964fe2772>@@@?$__crt_seh_guarded_call@X@@QEAAX$$QEAV<lambda_2d41944a1d46af3157314b8a01080d33>@@AEAV<lambda_8f455de75cd7d7f24b4096f044d8b9e6>@@$$QEAV<lambda_aa500f224e6afead328df44964fe2772>@@@Z 000000018001951c     libucrt:per_thread_data.obj
 0004:00000528       $pdata$??$?RV<lambda_aa87e3671a710a21b5dc78c0bdf72e11>@@AEAV<lambda_92619d2358a28f41a33ba319515a20b9>@@V<lambda_6992ecaafeb10aed2b74cb1fae11a551>@@@?$__crt_seh_guarded_call@X@@QEAAX$$QEAV<lambda_aa87e3671a710a21b5dc78c0bdf72e11>@@AEAV<lambda_92619d2358a28f41a33ba319515a20b9>@@$$QEAV<lambda_6992ecaafeb10aed2b74cb1fae11a551>@@@Z 0000000180019528     libucrt:per_thread_data.obj
 0004:00000534       $pdata$??$?RV<lambda_f2e299630e499de9f9a165e60fcd3db5>@@AEAV<lambda_2ae9d31cdba2644fcbeaf08da7c24588>@@V<lambda_40d01ff24d0e7b3814fdbdcee8eab3c7>@@@?$__crt_seh_guarded_call@X@@QEAAX$$QEAV<lambda_f2e299630e499de9f9a165e60fcd3db5>@@AEAV<lambda_2ae9d31cdba2644fcbeaf08da7c24588>@@$$QEAV<lambda_40d01ff24d0e7b3814fdbdcee8eab3c7>@@@Z 0000000180019534     libucrt:per_thread_data.obj
 0004:00000540       $pdata$?construct_ptd_array@@YAXQEAU__acrt_ptd@@@Z 0000000180019540     libucrt:per_thread_data.obj
 0004:0000054c       $pdata$?destroy_fls@@YAXPEAX@Z 000000018001954c     libucrt:per_thread_data.obj
 0004:00000558       $pdata$?destroy_ptd_array@@YAXQEAU__acrt_ptd@@@Z 0000000180019558     libucrt:per_thread_data.obj
 0004:00000564       $pdata$?replace_current_thread_locale_nolock@@YAXQEAU__acrt_ptd@@QEAU__crt_locale_data@@@Z 0000000180019564     libucrt:per_thread_data.obj
 0004:00000570       $pdata$__acrt_freeptd      0000000180019570     libucrt:per_thread_data.obj
 0004:0000057c       $pdata$__acrt_getptd       000000018001957c     libucrt:per_thread_data.obj
 0004:00000588       $pdata$__acrt_getptd_head  0000000180019588     libucrt:per_thread_data.obj
 0004:00000594       $pdata$__acrt_getptd_noexit 0000000180019594     libucrt:per_thread_data.obj
 0004:000005a0       $pdata$__acrt_initialize_ptd 00000001800195a0     libucrt:per_thread_data.obj
 0004:000005ac       $pdata$__acrt_uninitialize_ptd 00000001800195ac     libucrt:per_thread_data.obj
 0004:000005b8       $pdata$__acrt_update_locale_info 00000001800195b8     libucrt:locale_update.obj
 0004:000005c4       $pdata$__acrt_update_multibyte_info 00000001800195c4     libucrt:locale_update.obj
 0004:000005d0       $pdata$??$?RV<lambda_410d79af7f07d98d83a3f525b3859a53>@@AEAV<lambda_3e16ef9562a7dcce91392c22ab16ea36>@@V<lambda_38119f0e861e05405d8a144b9b982f0a>@@@?$__crt_seh_guarded_call@X@@QEAAX$$QEAV<lambda_410d79af7f07d98d83a3f525b3859a53>@@AEAV<lambda_3e16ef9562a7dcce91392c22ab16ea36>@@$$QEAV<lambda_38119f0e861e05405d8a144b9b982f0a>@@@Z 00000001800195d0     libucrt:wsetlocale.obj
 0004:000005dc       $pdata$__acrt_uninitialize_locale 00000001800195dc     libucrt:wsetlocale.obj
 0004:000005e8       $pdata$__acrt_initialize_locks 00000001800195e8     libucrt:locks.obj
 0004:000005f4       $pdata$__acrt_uninitialize_locks 00000001800195f4     libucrt:locks.obj
 0004:00000600       $pdata$__acrt_get_process_end_policy 0000000180019600     libucrt:win_policies.obj
 0004:0000060c       $pdata$_calloc_base        000000018001960c     libucrt:calloc_base.obj
 0004:00000618       $pdata$_free_base          0000000180019618     libucrt:free_base.obj
 0004:00000624       $pdata$??$__acrt_mbs_to_wcs_cp@U__crt_win32_buffer_internal_dynamic_resizing@@@@YAHQEBDAEAV?$__crt_win32_buffer@_WU__crt_win32_buffer_internal_dynamic_resizing@@@@I@Z 0000000180019624     libucrt:argv_wildcards.obj
 0004:00000630       $pdata$??$__acrt_wcs_to_mbs_cp@U__crt_win32_buffer_internal_dynamic_resizing@@@@YAHQEB_WAEAV?$__crt_win32_buffer@DU__crt_win32_buffer_internal_dynamic_resizing@@@@I@Z 0000000180019630     libucrt:argv_wildcards.obj
 0004:0000063c       $pdata$??$common_expand_argv_wildcards@D@@YAHQEAPEADQEAPEAPEAD@Z 000000018001963c     libucrt:argv_wildcards.obj
 0004:00000648       $pdata$??$copy_and_add_argument_to_buffer@D@@YAHQEBD0_KAEAV?$argument_list@D@?A0x5f5c8891@@@Z 0000000180019648     libucrt:argv_wildcards.obj
 0004:00000654       $pdata$??$expand_argument_wildcards@D@@YAHQEAD0AEAV?$argument_list@D@?A0x5f5c8891@@@Z 0000000180019654     libucrt:argv_wildcards.obj
 0004:00000660       $pdata$??$__acrt_wcs_to_mbs_cp@U__crt_win32_buffer_no_resizing@@@@YAHQEB_WAEAV?$__crt_win32_buffer@DU__crt_win32_buffer_no_resizing@@@@I@Z 0000000180019660     libucrt:getmodulefilenamea.obj
 0004:0000066c       $pdata$__acrt_GetModuleFileNameA 000000018001966c     libucrt:getmodulefilenamea.obj
 0004:00000678       $pdata$??$?RV<lambda_efdfa57d1f175319df784efa44bb7b81>@@AEAV<lambda_5f0a4c1567f8adc6734073e5d1e1b35c>@@V<lambda_2e8a7d3640ea6ccb4c2413664c2db6fd>@@@?$__crt_seh_guarded_call@X@@QEAAX$$QEAV<lambda_efdfa57d1f175319df784efa44bb7b81>@@AEAV<lambda_5f0a4c1567f8adc6734073e5d1e1b35c>@@$$QEAV<lambda_2e8a7d3640ea6ccb4c2413664c2db6fd>@@@Z 0000000180019678     libucrt:mbctype.obj
 0004:00000684       $pdata$?getSystemCP@@YAHH@Z 0000000180019684     libucrt:mbctype.obj
 0004:00000690       $pdata$?setSBCS@@YAXPEAU__crt_multibyte_data@@@Z 0000000180019690     libucrt:mbctype.obj
 0004:0000069c       $pdata$?setSBUpLow@@YAXPEAU__crt_multibyte_data@@@Z 000000018001969c     libucrt:mbctype.obj
 0004:000006a8       $pdata$?setmbcp_internal@@YAHH_NQEAU__acrt_ptd@@QEAPEAU__crt_multibyte_data@@@Z 00000001800196a8     libucrt:mbctype.obj
 0004:000006b4       $pdata$?update_thread_multibyte_data_internal@@YAPEAU__crt_multibyte_data@@QEAU__acrt_ptd@@QEAPEAU1@@Z 00000001800196b4     libucrt:mbctype.obj
 0004:000006c0       $pdata$__acrt_initialize_multibyte 00000001800196c0     libucrt:mbctype.obj
 0004:000006cc       $pdata$__acrt_update_thread_multibyte_data 00000001800196cc     libucrt:mbctype.obj
 0004:000006d8       $pdata$_setmbcp_nolock     00000001800196d8     libucrt:mbctype.obj
 0004:000006e4       $pdata$?x_ismbbtype_l@@YAHPEAU__crt_locale_pointers@@IHH@Z 00000001800196e4     libucrt:ismbbyte.obj
 0004:000006f0       $pdata$__acrt_initialize_command_line 00000001800196f0     libucrt:argv_data.obj
 0004:000006fc       $pdata$__acrt_WideCharToMultiByte 00000001800196fc     libucrt:widechartomultibyte.obj
 0004:00000708       $pdata$__dcrt_get_narrow_environment_from_os 0000000180019708     libucrt:get_environment_from_os.obj
 0004:00000714       $pdata$_recalloc_base      0000000180019714     libucrt:recalloc.obj
 0004:00000720       $pdata$?try_get_function@@YAPEAXW4function_id@?A0x391cf84c@@QEBDQEBW4module_id@2@2@Z 0000000180019720     libucrt:winapi_thunks.obj
 0004:0000072c       $pdata$__acrt_AppPolicyGetProcessTerminationMethodInternal 000000018001972c     libucrt:winapi_thunks.obj
 0004:00000738       $pdata$__acrt_AreFileApisANSI 0000000180019738     libucrt:winapi_thunks.obj
 0004:00000744       $pdata$__acrt_FlsAlloc     0000000180019744     libucrt:winapi_thunks.obj
 0004:00000750       $pdata$__acrt_FlsFree      0000000180019750     libucrt:winapi_thunks.obj
 0004:0000075c       $pdata$__acrt_FlsGetValue  000000018001975c     libucrt:winapi_thunks.obj
 0004:00000768       $pdata$__acrt_FlsSetValue  0000000180019768     libucrt:winapi_thunks.obj
 0004:00000774       $pdata$__acrt_InitializeCriticalSectionEx 0000000180019774     libucrt:winapi_thunks.obj
 0004:00000780       $pdata$__acrt_LCMapStringEx 0000000180019780     libucrt:winapi_thunks.obj
 0004:0000078c       $pdata$__acrt_LocaleNameToLCID 000000018001978c     libucrt:winapi_thunks.obj
 0004:00000798       $pdata$__acrt_initialize_winapi_thunks 0000000180019798     libucrt:winapi_thunks.obj
 0004:000007a4       $pdata$__acrt_uninitialize_winapi_thunks 00000001800197a4     libucrt:winapi_thunks.obj
 0004:000007b0       $pdata$__acrt_initialize_heap 00000001800197b0     libucrt:heap_handle.obj
 0004:000007bc       $pdata$?initialize_inherited_file_handles_nolock@@YAXXZ 00000001800197bc     libucrt:ioinit.obj
 0004:000007c8       $pdata$?initialize_stdio_handles_nolock@@YAXXZ 00000001800197c8     libucrt:ioinit.obj
 0004:000007d4       $pdata$__acrt_initialize_lowio 00000001800197d4     libucrt:ioinit.obj
 0004:000007e0       $pdata$__acrt_uninitialize_lowio 00000001800197e0     libucrt:ioinit.obj
 0004:000007ec       $pdata$__acrt_execute_initializers 00000001800197ec     libucrt:shared_initialization.obj
 0004:000007f8       $pdata$__acrt_execute_uninitializers 00000001800197f8     libucrt:shared_initialization.obj
 0004:00000804       $pdata$_callnewh           0000000180019804     libucrt:new_handler.obj
 0004:00000810       $pdata$_query_new_handler  0000000180019810     libucrt:new_handler.obj
 0004:0000081c       $pdata$??$?RV<lambda_450d765d439847d4c735a33c368b5fc0>@@AEAV<lambda_44731a7d0e6d81c3e6aa82d741081786>@@V<lambda_601a2a7da3b7a96e9554ac7215c4b07c>@@@?$__crt_seh_guarded_call@P6AXH@Z@@QEAAP6AXH@Z$$QEAV<lambda_450d765d439847d4c735a33c368b5fc0>@@AEAV<lambda_44731a7d0e6d81c3e6aa82d741081786>@@$$QEAV<lambda_601a2a7da3b7a96e9554ac7215c4b07c>@@@Z 000000018001981c     libucrt:signal.obj
 0004:00000828       $pdata$__acrt_get_sigabrt_handler 0000000180019828     libucrt:signal.obj
 0004:00000834       $pdata$raise               0000000180019834     libucrt:signal.obj
 0004:00000840       $pdata$??$?RV<lambda_842d9ff0dc9ef11c61343bbaebe7f885>@@AEAV<lambda_c5860995281e5c4ce005b3de8f5874ee>@@V<lambda_d90129c13df834fdcbf8d2b88dafcf2d>@@@?$__crt_seh_guarded_call@X@@QEAAX$$QEAV<lambda_842d9ff0dc9ef11c61343bbaebe7f885>@@AEAV<lambda_c5860995281e5c4ce005b3de8f5874ee>@@$$QEAV<lambda_d90129c13df834fdcbf8d2b88dafcf2d>@@@Z 0000000180019840     libucrt:fflush.obj
 0004:0000084c       $pdata$??$?RV<lambda_886d6c58226a84441f68b9f2b8217b83>@@AEAV<lambda_ab61a845afdef5b7c387490eaf3616ee>@@V<lambda_f7f22ab5edc0698d5f6905b0d3f44752>@@@?$__crt_seh_guarded_call@X@@QEAAX$$QEAV<lambda_886d6c58226a84441f68b9f2b8217b83>@@AEAV<lambda_ab61a845afdef5b7c387490eaf3616ee>@@$$QEAV<lambda_f7f22ab5edc0698d5f6905b0d3f44752>@@@Z 000000018001984c     libucrt:fflush.obj
 0004:00000858       $pdata$?common_flush_all@@YAH_N@Z 0000000180019858     libucrt:fflush.obj
 0004:00000864       $pdata$__acrt_stdio_flush_nolock 0000000180019864     libucrt:fflush.obj
 0004:00000870       $pdata$_fflush_nolock      0000000180019870     libucrt:fflush.obj
 0004:0000087c       $pdata$__acrt_initialize_stdio 000000018001987c     libucrt:_file.obj
 0004:00000888       $pdata$__acrt_uninitialize_stdio 0000000180019888     libucrt:_file.obj
 0004:00000894       $pdata$_malloc_base        0000000180019894     libucrt:malloc_base.obj
 0004:000008a0       $pdata$_mbtowc_l           00000001800198a0     libucrt:mbtowc.obj
 0004:000008ac       $pdata$_fileno             00000001800198ac     libucrt:fileno.obj
 0004:000008b8       $pdata$__pctype_func       00000001800198b8     libucrt:ctype.obj
 0004:000008c4       $pdata$_isleadbyte_l       00000001800198c4     libucrt:_wctype.obj
 0004:000008d0       $pdata$?__acrt_LCMapStringA_stat@@YAHPEAU__crt_locale_pointers@@PEB_WKPEBDHPEADHHH@Z 00000001800198d0     libucrt:lcmapstringa.obj
 0004:000008dc       $pdata$__acrt_LCMapStringA 00000001800198dc     libucrt:lcmapstringa.obj
 0004:000008e8       $pdata$__acrt_free_locale  00000001800198e8     libucrt:locale_refcounting.obj
 0004:000008f4       $pdata$__acrt_locale_free_lc_time_if_unreferenced 00000001800198f4     libucrt:locale_refcounting.obj
 0004:00000900       $pdata$__acrt_release_locale_ref 0000000180019900     libucrt:locale_refcounting.obj
 0004:0000090c       $pdata$__acrt_update_thread_locale_data 000000018001990c     libucrt:locale_refcounting.obj
 0004:00000918       $pdata$_updatetlocinfoEx_nolock 0000000180019918     libucrt:locale_refcounting.obj
 0004:00000924       $pdata$__acrt_locale_free_monetary 0000000180019924     libucrt:initmon.obj
 0004:00000930       $pdata$__acrt_locale_free_numeric 0000000180019930     libucrt:initnum.obj
 0004:0000093c       $pdata$?free_crt_array_internal@@YAXQEAPEBX_K@Z 000000018001993c     libucrt:inittime.obj
 0004:00000948       $pdata$__acrt_locale_free_time 0000000180019948     libucrt:inittime.obj
 0004:00000954       $pdata$__acrt_GetStringTypeA 0000000180019954     libucrt:getstringtypea.obj
 0004:00000960       $pdata$qsort               0000000180019960     libucrt:qsort.obj
 0004:0000096c       $pdata$4$qsort             000000018001996c     libucrt:qsort.obj
 0004:00000978       $pdata$5$qsort             0000000180019978     libucrt:qsort.obj
 0004:00000984       $pdata$strncpy_s           0000000180019984     libucrt:strncpy_s.obj
 0004:00000990       $pdata$fallbackMethod      0000000180019990     libucrt:strpbrk.obj
 0004:0000099c       $pdata$strpbrk             000000018001999c     libucrt:strpbrk.obj
 0004:000009a8       $pdata$_mbsdec_l           00000001800199a8     libucrt:mbsdec.obj
 0004:000009b4       $pdata$?initialize_multibyte@@YAHXZ 00000001800199b4     libucrt:multibyte_initializer.obj
 0004:000009c0       $pdata$_msize_base         00000001800199c0     libucrt:msize.obj
 0004:000009cc       $pdata$_realloc_base       00000001800199cc     libucrt:realloc_base.obj
 0004:000009d8       $pdata$?GetTableIndexFromLocaleName@@YAHPEB_W@Z 00000001800199d8     libucrt:lcidtoname_downlevel.obj
 0004:000009e4       $pdata$__acrt_DownlevelLocaleNameToLCID 00000001800199e4     libucrt:lcidtoname_downlevel.obj
 0004:000009f0       $pdata$__acrt_lowio_create_handle_array 00000001800199f0     libucrt:osfinfo.obj
 0004:000009fc       $pdata$__acrt_lowio_destroy_handle_array 00000001800199fc     libucrt:osfinfo.obj
 0004:00000a08       $pdata$__acrt_lowio_ensure_fh_exists 0000000180019a08     libucrt:osfinfo.obj
 0004:00000a14       $pdata$_free_osfhnd        0000000180019a14     libucrt:osfinfo.obj
 0004:00000a20       $pdata$_get_osfhandle      0000000180019a20     libucrt:osfinfo.obj
 0004:00000a2c       $pdata$??$?RV<lambda_a37b2b86f63e897a80ea819b0eb08c01>@@AEAV<lambda_38ce7e780aa69e748d6df282ebc68efe>@@V<lambda_99fb1378e971ab6e7edea83e3a7a83a2>@@@?$__crt_seh_guarded_call@H@@QEAAH$$QEAV<lambda_a37b2b86f63e897a80ea819b0eb08c01>@@AEAV<lambda_38ce7e780aa69e748d6df282ebc68efe>@@$$QEAV<lambda_99fb1378e971ab6e7edea83e3a7a83a2>@@@Z 0000000180019a2c     libucrt:commit.obj
 0004:00000a38       $pdata$_commit             0000000180019a38     libucrt:commit.obj
 0004:00000a44       $pdata$?write_double_translated_ansi_nolock@@YA?AUwrite_result@?A0x17268360@@HQEBDI@Z 0000000180019a44     libucrt:write.obj
 0004:00000a50       $pdata$?write_text_ansi_nolock@@YA?AUwrite_result@?A0x17268360@@HQEBDI@Z 0000000180019a50     libucrt:write.obj
 0004:00000a5c       $pdata$?write_text_utf16le_nolock@@YA?AUwrite_result@?A0x17268360@@HQEBDI@Z 0000000180019a5c     libucrt:write.obj
 0004:00000a68       $pdata$?write_text_utf8_nolock@@YA?AUwrite_result@?A0x17268360@@HQEBDI@Z 0000000180019a68     libucrt:write.obj
 0004:00000a74       $pdata$_write              0000000180019a74     libucrt:write.obj
 0004:00000a80       $pdata$_write_nolock       0000000180019a80     libucrt:write.obj
 0004:00000a8c       $pdata$_fcloseall          0000000180019a8c     libucrt:closeall.obj
 0004:00000a98       $pdata$__acrt_stdio_free_buffer_nolock 0000000180019a98     libucrt:_freebuf.obj
 0004:00000aa4       $pdata$_isatty             0000000180019aa4     libucrt:isatty.obj
 0004:00000ab0       $pdata$?__mbrtowc_utf8@__crt_mbstring@@YA_KPEA_WPEBD_KPEAU_Mbstatet@@@Z 0000000180019ab0     libucrt:mbrtowc.obj
 0004:00000abc       $pdata$?__mbsrtowcs_utf8@__crt_mbstring@@YA_KPEA_WPEAPEBD_KPEAU_Mbstatet@@@Z 0000000180019abc     libucrt:mbrtowc.obj
 0004:00000ac8       $pdata$??$common_lseek_nolock@_J@@YA_JH_JH@Z 0000000180019ac8     libucrt:lseek.obj
 0004:00000ad4       $pdata$_putwch_nolock      0000000180019ad4     libucrt:putwch.obj
 0004:00000ae0       $pdata$_fclose_nolock      0000000180019ae0     libucrt:fclose.obj
 0004:00000aec       $pdata$fclose              0000000180019aec     libucrt:fclose.obj
 0004:00000af8       $pdata$?__mbrtoc32_utf8@__crt_mbstring@@YA_KPEA_UPEBD_KPEAU_Mbstatet@@@Z 0000000180019af8     libucrt:mbrtoc32.obj
 0004:00000b10       $pdata$__dcrt_lowio_ensure_console_output_initialized 0000000180019b10     libucrt:initcon.obj
 0004:00000b1c       $pdata$__dcrt_terminate_console_output 0000000180019b1c     libucrt:initcon.obj
 0004:00000b28       $pdata$__dcrt_write_console 0000000180019b28     libucrt:initcon.obj
 0004:00000b34       $pdata$??$?RV<lambda_751a882b2c74d4b022dec766aa51a29a>@@AEAV<lambda_628dfdc04ba53c8bfc02c9951375f3f5>@@V<lambda_f6c7be5f7998530c34de24c7437d6b54>@@@?$__crt_seh_guarded_call@H@@QEAAH$$QEAV<lambda_751a882b2c74d4b022dec766aa51a29a>@@AEAV<lambda_628dfdc04ba53c8bfc02c9951375f3f5>@@$$QEAV<lambda_f6c7be5f7998530c34de24c7437d6b54>@@@Z 0000000180019b34     libucrt:close.obj
 0004:00000b40       $pdata$_close              0000000180019b40     libucrt:close.obj
 0004:00000b4c       $pdata$_close_nolock       0000000180019b4c     libucrt:close.obj
 0004:00000b58       $pdata$_call_matherr       0000000180019b58     libucrt:libm_error.obj
 0004:00000b64       $pdata$_exception_enabled  0000000180019b64     libucrt:libm_error.obj
 0004:00000b70       $pdata$_handle_error       0000000180019b70     libucrt:libm_error.obj
 0004:00000b7c       $pdata$__acrt_initialize_fma3 0000000180019b7c     libucrt:fma3_available.obj
 0004:00000b88       $pdata$_log10_special      0000000180019b88     libucrt:log_special.obj
 0004:00000b94       $pdata$_log_special_common 0000000180019b94     libucrt:log_special.obj
 0004:00000bac       $pdata$_raise_exc          0000000180019bac     libucrt:fpexcept.obj
 0004:00000bb8       $pdata$_raise_exc_ex       0000000180019bb8     libucrt:fpexcept.obj
 0004:00000bc4       $pdata$_set_errno_from_matherr 0000000180019bc4     libucrt:fpexcept.obj
 0004:00000bd0       $pdata$_clrfp              0000000180019bd0     libucrt:fpctrl.obj
 0004:00000bdc       $pdata$_ctrlfp             0000000180019bdc     libucrt:fpctrl.obj
 0004:00000be8       $pdata$_set_statfp         0000000180019be8     libucrt:fpctrl.obj
 0004:00000bf4       $pdata$_statfp             0000000180019bf4     libucrt:fpctrl.obj
 0004:00000c00       $pdata$_IsNonwritableInCurrentImage 0000000180019c00     LIBCMT:pesect.obj
 0004:00000c0c       $pdata$__GSHandlerCheck    0000000180019c0c     LIBCMT:gshandler.obj
 0004:00000c18       $pdata$__GSHandlerCheckCommon 0000000180019c18     LIBCMT:gshandler.obj
 0004:00000c48       $pdata$?fin$0@?0??dllmain_crt_process_attach@@YAHQEAUHINSTANCE__@@QEAX@Z@4HA 0000000180019c48     LIBCMT:dll_dllmain.obj
 0004:00000c54       $pdata$?fin$0@?0??dllmain_crt_process_detach@@YAH_N@Z@4HA 0000000180019c54     LIBCMT:dll_dllmain.obj
 0004:00000c60       $pdata$?filt$0@?0??dllmain_dispatch@@YAHQEAUHINSTANCE__@@KQEAX@Z@4HA 0000000180019c60     LIBCMT:dll_dllmain.obj
 0004:00000c6c       $pdata$__scrt_is_nonwritable_in_current_image$filt$0 0000000180019c6c     LIBCMT:utility.obj
 0004:00000c78       $pdata$__DestructExceptionObject$filt$0 0000000180019c78     libvcruntime:ehhelpers.obj
 0004:00000c84       $pdata$?fin$0@?0???$?RV<lambda_efdfa57d1f175319df784efa44bb7b81>@@AEAV<lambda_5f0a4c1567f8adc6734073e5d1e1b35c>@@V<lambda_2e8a7d3640ea6ccb4c2413664c2db6fd>@@@?$__crt_seh_guarded_call@X@@QEAAX$$QEAV<lambda_efdfa57d1f175319df784efa44bb7b81>@@AEAV<lambda_5f0a4c1567f8adc6734073e5d1e1b35c>@@$$QEAV<lambda_2e8a7d3640ea6ccb4c2413664c2db6fd>@@@Z@4HA 0000000180019c84     libucrt:mbctype.obj
 0004:00000c84       $pdata$?fin$0@?0???$?RV<lambda_7777bce6b2f8c936911f934f8298dc43>@@AEAV<lambda_f03950bc5685219e0bcd2087efbe011e>@@V<lambda_3883c3dff614d5e0c5f61bb1ac94921c>@@@?$__crt_seh_guarded_call@H@@QEAAH$$QEAV<lambda_7777bce6b2f8c936911f934f8298dc43>@@AEAV<lambda_f03950bc5685219e0bcd2087efbe011e>@@$$QEAV<lambda_3883c3dff614d5e0c5f61bb1ac94921c>@@@Z@4HA 0000000180019c84     libucrt:onexit.obj
 0004:00000c84       $pdata$?fin$0@?0???$?RV<lambda_0ae27a3a962d80f24befdcbee591983d>@@AEAV<lambda_8d0ee55de4b1038c4002e0adecdf1839>@@V<lambda_dc504788e8f1664fe9b84e20bfb512f2>@@@?$__crt_seh_guarded_call@X@@QEAAX$$QEAV<lambda_0ae27a3a962d80f24befdcbee591983d>@@AEAV<lambda_8d0ee55de4b1038c4002e0adecdf1839>@@$$QEAV<lambda_dc504788e8f1664fe9b84e20bfb512f2>@@@Z@4HA 0000000180019c84     libucrt:per_thread_data.obj
 0004:00000c84       $pdata$?fin$0@?0???$?RV<lambda_aa87e3671a710a21b5dc78c0bdf72e11>@@AEAV<lambda_92619d2358a28f41a33ba319515a20b9>@@V<lambda_6992ecaafeb10aed2b74cb1fae11a551>@@@?$__crt_seh_guarded_call@X@@QEAAX$$QEAV<lambda_aa87e3671a710a21b5dc78c0bdf72e11>@@AEAV<lambda_92619d2358a28f41a33ba319515a20b9>@@$$QEAV<lambda_6992ecaafeb10aed2b74cb1fae11a551>@@@Z@4HA 0000000180019c84     libucrt:per_thread_data.obj
 0004:00000c84       $pdata$?fin$0@?0???$?RV<lambda_f2e299630e499de9f9a165e60fcd3db5>@@AEAV<lambda_2ae9d31cdba2644fcbeaf08da7c24588>@@V<lambda_40d01ff24d0e7b3814fdbdcee8eab3c7>@@@?$__crt_seh_guarded_call@X@@QEAAX$$QEAV<lambda_f2e299630e499de9f9a165e60fcd3db5>@@AEAV<lambda_2ae9d31cdba2644fcbeaf08da7c24588>@@$$QEAV<lambda_40d01ff24d0e7b3814fdbdcee8eab3c7>@@@Z@4HA 0000000180019c84     libucrt:per_thread_data.obj
 0004:00000c84       $pdata$?fin$0@?0???$?RV<lambda_2d41944a1d46af3157314b8a01080d33>@@AEAV<lambda_8f455de75cd7d7f24b4096f044d8b9e6>@@V<lambda_aa500f224e6afead328df44964fe2772>@@@?$__crt_seh_guarded_call@X@@QEAAX$$QEAV<lambda_2d41944a1d46af3157314b8a01080d33>@@AEAV<lambda_8f455de75cd7d7f24b4096f044d8b9e6>@@$$QEAV<lambda_aa500f224e6afead328df44964fe2772>@@@Z@4HA 0000000180019c84     libucrt:per_thread_data.obj
 0004:00000c84       $pdata$?fin$0@?0???$?RV<lambda_d80eeec6fff315bfe5c115232f3240e3>@@AEAV<lambda_6e4b09c48022b2350581041d5f6b0c4c>@@V<lambda_2358e3775559c9db80273638284d5e45>@@@?$__crt_seh_guarded_call@X@@QEAAX$$QEAV<lambda_d80eeec6fff315bfe5c115232f3240e3>@@AEAV<lambda_6e4b09c48022b2350581041d5f6b0c4c>@@$$QEAV<lambda_2358e3775559c9db80273638284d5e45>@@@Z@4HA 0000000180019c84     libucrt:exit.obj
 0004:00000c84       $pdata$?fin$0@?0???$?RV<lambda_450d765d439847d4c735a33c368b5fc0>@@AEAV<lambda_44731a7d0e6d81c3e6aa82d741081786>@@V<lambda_601a2a7da3b7a96e9554ac7215c4b07c>@@@?$__crt_seh_guarded_call@P6AXH@Z@@QEAAP6AXH@Z$$QEAV<lambda_450d765d439847d4c735a33c368b5fc0>@@AEAV<lambda_44731a7d0e6d81c3e6aa82d741081786>@@$$QEAV<lambda_601a2a7da3b7a96e9554ac7215c4b07c>@@@Z@4HA 0000000180019c84     libucrt:signal.obj
 0004:00000c90       $pdata$?filt$0@?0???R<lambda_6e4b09c48022b2350581041d5f6b0c4c>@@QEBA@XZ@4HA 0000000180019c90     libucrt:exit.obj
 0004:00000c9c       $pdata$?fin$0@?0???$?RV<lambda_410d79af7f07d98d83a3f525b3859a53>@@AEAV<lambda_3e16ef9562a7dcce91392c22ab16ea36>@@V<lambda_38119f0e861e05405d8a144b9b982f0a>@@@?$__crt_seh_guarded_call@X@@QEAAX$$QEAV<lambda_410d79af7f07d98d83a3f525b3859a53>@@AEAV<lambda_3e16ef9562a7dcce91392c22ab16ea36>@@$$QEAV<lambda_38119f0e861e05405d8a144b9b982f0a>@@@Z@4HA 0000000180019c9c     libucrt:wsetlocale.obj
 0004:00000ca8       $pdata$?fin$0@?0??update_thread_multibyte_data_internal@@YAPEAU__crt_multibyte_data@@QEAU__acrt_ptd@@QEAPEAU1@@Z@4HA 0000000180019ca8     libucrt:mbctype.obj
 0004:00000cb4       $pdata$__acrt_initialize_lowio$fin$0 0000000180019cb4     libucrt:ioinit.obj
 0004:00000cb4       $pdata$__acrt_lowio_ensure_fh_exists$fin$0 0000000180019cb4     libucrt:osfinfo.obj
 0004:00000cc0       $pdata$_query_new_handler$fin$0 0000000180019cc0     libucrt:new_handler.obj
 0004:00000ccc       $pdata$raise$fin$0         0000000180019ccc     libucrt:signal.obj
 0004:00000cd8       $pdata$?fin$0@?0???$?RV<lambda_842d9ff0dc9ef11c61343bbaebe7f885>@@AEAV<lambda_c5860995281e5c4ce005b3de8f5874ee>@@V<lambda_d90129c13df834fdcbf8d2b88dafcf2d>@@@?$__crt_seh_guarded_call@X@@QEAAX$$QEAV<lambda_842d9ff0dc9ef11c61343bbaebe7f885>@@AEAV<lambda_c5860995281e5c4ce005b3de8f5874ee>@@$$QEAV<lambda_d90129c13df834fdcbf8d2b88dafcf2d>@@@Z@4HA 0000000180019cd8     libucrt:fflush.obj
 0004:00000ce4       $pdata$?fin$0@?0???$?RV<lambda_886d6c58226a84441f68b9f2b8217b83>@@AEAV<lambda_ab61a845afdef5b7c387490eaf3616ee>@@V<lambda_f7f22ab5edc0698d5f6905b0d3f44752>@@@?$__crt_seh_guarded_call@X@@QEAAX$$QEAV<lambda_886d6c58226a84441f68b9f2b8217b83>@@AEAV<lambda_ab61a845afdef5b7c387490eaf3616ee>@@$$QEAV<lambda_f7f22ab5edc0698d5f6905b0d3f44752>@@@Z@4HA 0000000180019ce4     libucrt:fflush.obj
 0004:00000cf0       $pdata$__acrt_update_thread_locale_data$fin$0 0000000180019cf0     libucrt:locale_refcounting.obj
 0004:00000cfc       $pdata$?fin$0@?0???$?RV<lambda_a37b2b86f63e897a80ea819b0eb08c01>@@AEAV<lambda_38ce7e780aa69e748d6df282ebc68efe>@@V<lambda_99fb1378e971ab6e7edea83e3a7a83a2>@@@?$__crt_seh_guarded_call@H@@QEAAH$$QEAV<lambda_a37b2b86f63e897a80ea819b0eb08c01>@@AEAV<lambda_38ce7e780aa69e748d6df282ebc68efe>@@$$QEAV<lambda_99fb1378e971ab6e7edea83e3a7a83a2>@@@Z@4HA 0000000180019cfc     libucrt:commit.obj
 0004:00000cfc       $pdata$?fin$0@?0???$?RV<lambda_751a882b2c74d4b022dec766aa51a29a>@@AEAV<lambda_628dfdc04ba53c8bfc02c9951375f3f5>@@V<lambda_f6c7be5f7998530c34de24c7437d6b54>@@@?$__crt_seh_guarded_call@H@@QEAAH$$QEAV<lambda_751a882b2c74d4b022dec766aa51a29a>@@AEAV<lambda_628dfdc04ba53c8bfc02c9951375f3f5>@@$$QEAV<lambda_f6c7be5f7998530c34de24c7437d6b54>@@@Z@4HA 0000000180019cfc     libucrt:close.obj
 0004:00000d08       $pdata$_write$fin$0        0000000180019d08     libucrt:write.obj
 0004:00000d14       $pdata$_fcloseall$fin$0    0000000180019d14     libucrt:closeall.obj
 0004:00000d20       $pdata$fclose$fin$0        0000000180019d20     libucrt:fclose.obj
 0004:00000d2c       $pdata$_ctrlfp$filt$0      0000000180019d2c     libucrt:fpctrl.obj
 0004:00000d38       $pdata$_IsNonwritableInCurrentImage$filt$0 0000000180019d38     LIBCMT:pesect.obj
 0005:00000060       $R000000                   000000018001a060     * linker generated manifest res *

 Exports

  ordinal    name

        1    _register_win32ipc_
